Section listing
                             lit 01a0 0124 rom
                        func_lit 02c4 003c rom
                     psoc_config 0300 0222 rom
                     UserModules 0522 0a92 rom
                            text 0fb4 1edc rom
                             TOP 0068 0119 rom
                     E2PROM_AREA 3e80 0180 rom
                      SSCParmBlk 00f7 0009 ram
               virtual_registers 00df 000f ram
                            data 0000 01f5 ram
                   SROMRegisters 00f8 0008 ram
                      IntVectors 0000 0068 rom

ROM symbol table (sorted by address)
  0000 IntVec_Reset
  0004 IntVec_SVM
  0008 IntVec_AC0
  000c IntVec_AC1
  0018 IntVec_VC3
  001c IntVec_GPIo
  0020 IntVec_DBB00
  0024 IntVec_DBB01
  0028 IntVec_DCB02
  002c IntVec_DCB03
  0040 IntVec_USB_Reset
  0044 IntVec_USB_SOF
  0048 IntVec_USB_EP0
  004c IntVec_USB_EP1
  0050 IntVec_USB_EP2
  0054 IntVec_USB_EP3
  0058 IntVec_USB_EP4
  005c IntVec_USB_Wakeup
  0060 IntVec_I2C
  0064 IntVec_Sleep
  0068 __Start
  017e _bGetPowerSetting
  017e bGetPowerSetting
  01a0 main.c:avDisplayKeypress
  01a6 main.c:avDisplayKeyStringComplete
  01ac main.c:avDisplaySuccess
  01b7 main.c:avDisplayFailure
  01c6 main.c:avDisplayAccessDenied
  01d1 main.c:avDisplayPassageMode
  01d4 main.c:avDisplayLockout
  01d8 main.c:avDisplayLowBattery
  01f2 main.c:avDisplayBlackoutMode
  0205 main.c:avDisplayProgrammingModeEntered
  0216 main.c:avDisplayLockoutOccurred
  0232 main.c:avDisplayGreenFlash
  0235 main.c:avDisplayRedFlash
  0238 main.c:avDisplayYellowFlash
  023b main.c:keys
  0245 main.c:leds
  0257 _pwmEntriesMotor
  0290 main.c:motorBehavior
  02c4 __lit_end
  02c4 __func_lit_start
  0300 __func_lit_end
  0300 LoadConfigTBL_emtek_cy8c24894
  050c _LoadConfigInit
  050c LoadConfigInit
  051c _LoadConfig_emtek_cy8c24894
  051c LoadConfig_emtek_cy8c24894
  0522 __psoc_config_end
  0522 Vbat_En_On
  0522 _Vbat_En_On
  0526 _Vbat_En_Stop
  0526 Vbat_En_Start
  0526 Vbat_En_Stop
  0526 Vbat_En_Off
  0526 _Vbat_En_Start
  0526 _Vbat_En_Off
  0528 Vbat_En_Switch
  0528 _Vbat_En_Switch
  0540 _Vbat_En_Invert
  0540 Vbat_En_Invert
  054f _Vbat_En_GetState
  054f Vbat_En_GetState
  055f Timer16_EnableInt
  055f _Timer16_EnableInt
  0563 Timer16_DisableInt
  0563 _Timer16_DisableInt
  0567 Timer16_Start
  0567 _Timer16_Start
  056b Timer16_Stop
  056b _Timer16_Stop
  056f Timer16_WritePeriod
  056f _Timer16_WritePeriod
  0575 Timer16_WriteCompareValue
  0575 _Timer16_WriteCompareValue
  057b _Timer16_wReadCompareValue
  057b _wTimer16_ReadCompareValue
  057b wTimer16_ReadCompareValue
  057b Timer16_wReadCompareValue
  0581 Timer16_wReadTimerSaveCV
  0581 wTimer16_ReadCounter
  0581 _Timer16_wReadTimerSaveCV
  0581 _wTimer16_ReadCounter
  0581 wTimer16_ReadTimerSaveCV
  0581 _wTimer16_ReadTimerSaveCV
  05b7 _wTimer16_CaptureCounter
  05b7 _wTimer16_ReadTimer
  05b7 _Timer16_wReadTimer
  05b7 wTimer16_CaptureCounter
  05b7 wTimer16_ReadTimer
  05b7 Timer16_wReadTimer
  05bf _Sounder_On
  05bf Sounder_On
  05c3 _Sounder_Start
  05c3 Sounder_Stop
  05c3 Sounder_Off
  05c3 _Sounder_Stop
  05c3 _Sounder_Off
  05c3 Sounder_Start
  05c5 _Sounder_Switch
  05c5 Sounder_Switch
  05dd Sounder_Invert
  05dd _Sounder_Invert
  05ec Sounder_GetState
  05ec _Sounder_GetState
  05fc PWM8_EnableInt
  05fc _PWM8_EnableInt
  0600 _PWM8_DisableInt
  0600 PWM8_DisableInt
  0604 _PWM8_Start
  0604 PWM8_Start
  0608 PWM8_Stop
  0608 _PWM8_Stop
  060c _PWM8_WritePeriod
  060c PWM8_WritePeriod
  060f PWM8_WritePulseWidth
  060f _PWM8_WritePulseWidth
  0612 _PWM8_bReadPulseWidth
  0612 _bPWM8_ReadPulseWidth
  0612 bPWM8_ReadPulseWidth
  0612 PWM8_bReadPulseWidth
  0615 bPWM8_ReadCounter
  0615 PWM8_bReadCounter
  0615 _bPWM8_ReadCounter
  0615 _PWM8_bReadCounter
  0642 _PGA_Start
  0642 PGA_SetPower
  0642 _PGA_SetPower
  0642 PGA_Start
  0654 PGA_SetGain
  0654 _PGA_SetGain
  067e PGA_Stop
  067e _PGA_Stop
  0682 Motor_B_LS_On
  0682 _Motor_B_LS_On
  0686 Motor_B_LS_Start
  0686 _Motor_B_LS_Stop
  0686 Motor_B_LS_Off
  0686 _Motor_B_LS_Start
  0686 _Motor_B_LS_Off
  0686 Motor_B_LS_Stop
  0688 _Motor_B_LS_Switch
  0688 Motor_B_LS_Switch
  06a0 _Motor_B_LS_Invert
  06a0 Motor_B_LS_Invert
  06af Motor_B_LS_GetState
  06af _Motor_B_LS_GetState
  06bf _Motor_B_HS_On
  06bf Motor_B_HS_On
  06c3 Motor_B_HS_Stop
  06c3 _Motor_B_HS_Off
  06c3 _Motor_B_HS_Start
  06c3 _Motor_B_HS_Stop
  06c3 Motor_B_HS_Off
  06c3 Motor_B_HS_Start
  06c5 Motor_B_HS_Switch
  06c5 _Motor_B_HS_Switch
  06dd _Motor_B_HS_Invert
  06dd Motor_B_HS_Invert
  06ec Motor_B_HS_GetState
  06ec _Motor_B_HS_GetState
  06fc _Motor_A_LS_On
  06fc Motor_A_LS_On
  0700 _Motor_A_LS_Off
  0700 _Motor_A_LS_Start
  0700 Motor_A_LS_Start
  0700 Motor_A_LS_Off
  0700 Motor_A_LS_Stop
  0700 _Motor_A_LS_Stop
  0702 _Motor_A_LS_Switch
  0702 Motor_A_LS_Switch
  071a Motor_A_LS_Invert
  071a _Motor_A_LS_Invert
  0729 _Motor_A_LS_GetState
  0729 Motor_A_LS_GetState
  0739 _Motor_A_HS_On
  0739 Motor_A_HS_On
  073d _Motor_A_HS_Start
  073d _Motor_A_HS_Off
  073d Motor_A_HS_Start
  073d Motor_A_HS_Off
  073d _Motor_A_HS_Stop
  073d Motor_A_HS_Stop
  073f Motor_A_HS_Switch
  073f _Motor_A_HS_Switch
  0757 _Motor_A_HS_Invert
  0757 Motor_A_HS_Invert
  0766 _Motor_A_HS_GetState
  0766 Motor_A_HS_GetState
  0776 Lever_SW_2_On
  0776 _Lever_SW_2_On
  077a _Lever_SW_2_Stop
  077a _Lever_SW_2_Off
  077a Lever_SW_2_Stop
  077a Lever_SW_2_Start
  077a Lever_SW_2_Off
  077a _Lever_SW_2_Start
  077c _Lever_SW_2_Switch
  077c Lever_SW_2_Switch
  0794 Lever_SW_2_Invert
  0794 _Lever_SW_2_Invert
  07a3 Lever_SW_2_GetState
  07a3 _Lever_SW_2_GetState
  07b3 Lever_SW_1_On
  07b3 _Lever_SW_1_On
  07b7 _Lever_SW_1_Off
  07b7 Lever_SW_1_Stop
  07b7 Lever_SW_1_Start
  07b7 Lever_SW_1_Off
  07b7 _Lever_SW_1_Start
  07b7 _Lever_SW_1_Stop
  07b9 _Lever_SW_1_Switch
  07b9 Lever_SW_1_Switch
  07d1 _Lever_SW_1_Invert
  07d1 Lever_SW_1_Invert
  07e0 _Lever_SW_1_GetState
  07e0 Lever_SW_1_GetState
  07f0 _LED_Yellow_On
  07f0 LED_Yellow_On
  07f4 LED_Yellow_Start
  07f4 LED_Yellow_Stop
  07f4 LED_Yellow_Off
  07f4 _LED_Yellow_Start
  07f4 _LED_Yellow_Stop
  07f4 _LED_Yellow_Off
  07f6 _LED_Yellow_Switch
  07f6 LED_Yellow_Switch
  080e LED_Yellow_Invert
  080e _LED_Yellow_Invert
  081d LED_Yellow_GetState
  081d _LED_Yellow_GetState
  082e LED_Red_On
  082e _LED_Red_On
  0832 LED_Red_Off
  0832 LED_Red_Stop
  0832 _LED_Red_Stop
  0832 LED_Red_Start
  0832 _LED_Red_Start
  0832 _LED_Red_Off
  0834 _LED_Red_Switch
  0834 LED_Red_Switch
  084c LED_Red_Invert
  084c _LED_Red_Invert
  085b _LED_Red_GetState
  085b LED_Red_GetState
  086c LED_Green_On
  086c _LED_Green_On
  0870 LED_Green_Start
  0870 LED_Green_Off
  0870 LED_Green_Stop
  0870 _LED_Green_Off
  0870 _LED_Green_Stop
  0870 _LED_Green_Start
  0872 LED_Green_Switch
  0872 _LED_Green_Switch
  088a _LED_Green_Invert
  088a LED_Green_Invert
  0899 _LED_Green_GetState
  0899 LED_Green_GetState
  08aa _E2PROM_Start
  08aa E2PROM_Start
  08ab E2PROM_Stop
  08ab _E2PROM_Stop
  08ac E2PROM_bE2Write
  08ac _E2PROM_bE2Write
  08b8 E2PROM_E2Read
  08b8 _E2PROM_E2Read
  08c3 _Deadbolt_SW_On
  08c3 Deadbolt_SW_On
  08c7 _Deadbolt_SW_Start
  08c7 Deadbolt_SW_Off
  08c7 _Deadbolt_SW_Off
  08c7 _Deadbolt_SW_Stop
  08c7 Deadbolt_SW_Start
  08c7 Deadbolt_SW_Stop
  08c9 Deadbolt_SW_Switch
  08c9 _Deadbolt_SW_Switch
  08e1 Deadbolt_SW_Invert
  08e1 _Deadbolt_SW_Invert
  08f0 Deadbolt_SW_GetState
  08f0 _Deadbolt_SW_GetState
  0900 BackLightPWM_On
  0900 _BackLightPWM_On
  0904 BackLightPWM_Off
  0904 BackLightPWM_Stop
  0904 _BackLightPWM_Stop
  0904 _BackLightPWM_Start
  0904 _BackLightPWM_Off
  0904 BackLightPWM_Start
  0906 _BackLightPWM_Switch
  0906 BackLightPWM_Switch
  091e _BackLightPWM_Invert
  091e BackLightPWM_Invert
  092d _BackLightPWM_GetState
  092d BackLightPWM_GetState
  093d BackLight5_On
  093d _BackLight5_On
  0941 _BackLight5_Stop
  0941 BackLight5_Start
  0941 BackLight5_Stop
  0941 _BackLight5_Off
  0941 BackLight5_Off
  0941 _BackLight5_Start
  0943 BackLight5_Switch
  0943 _BackLight5_Switch
  095b BackLight5_Invert
  095b _BackLight5_Invert
  096a _BackLight5_GetState
  096a BackLight5_GetState
  097b _BackLight4_On
  097b BackLight4_On
  097f BackLight4_Stop
  097f _BackLight4_Start
  097f _BackLight4_Off
  097f BackLight4_Off
  097f BackLight4_Start
  097f _BackLight4_Stop
  0981 _BackLight4_Switch
  0981 BackLight4_Switch
  0999 BackLight4_Invert
  0999 _BackLight4_Invert
  09a8 BackLight4_GetState
  09a8 _BackLight4_GetState
  09b9 _BackLight3_On
  09b9 BackLight3_On
  09bd BackLight3_Stop
  09bd _BackLight3_Start
  09bd _BackLight3_Stop
  09bd BackLight3_Off
  09bd BackLight3_Start
  09bd _BackLight3_Off
  09bf BackLight3_Switch
  09bf _BackLight3_Switch
  09d7 _BackLight3_Invert
  09d7 BackLight3_Invert
  09e6 _BackLight3_GetState
  09e6 BackLight3_GetState
  09f7 BackLight2_On
  09f7 _BackLight2_On
  09fb _BackLight2_Off
  09fb _BackLight2_Stop
  09fb BackLight2_Off
  09fb _BackLight2_Start
  09fb BackLight2_Start
  09fb BackLight2_Stop
  09fd _BackLight2_Switch
  09fd BackLight2_Switch
  0a15 _BackLight2_Invert
  0a15 BackLight2_Invert
  0a24 BackLight2_GetState
  0a24 _BackLight2_GetState
  0a35 _BackLight1_On
  0a35 BackLight1_On
  0a39 _BackLight1_Start
  0a39 BackLight1_Stop
  0a39 _BackLight1_Off
  0a39 _BackLight1_Stop
  0a39 BackLight1_Start
  0a39 BackLight1_Off
  0a3b _BackLight1_Switch
  0a3b BackLight1_Switch
  0a53 BackLight1_Invert
  0a53 _BackLight1_Invert
  0a62 _BackLight1_GetState
  0a62 BackLight1_GetState
  0a73 _ADCINC_ADConversion_ISR
  0af3 ADCINC_Start
  0af3 _ADCINC_Start
  0b08 _ADCINC_SetPower
  0b08 ADCINC_SetPower
  0b24 ADCINC_Stop
  0b24 _ADCINC_Stop
  0b31 ADCINC_GetSamples
  0b31 _ADCINC_GetSamples
  0b60 ADCINC_StopADC
  0b60 _ADCINC_StopADC
  0b7a ADCINC_fIsDataAvailable
  0b7a _ADCINC_fIsDataAvailable
  0b80 _ADCINC_iClearFlagGetData
  0b80 ADCINC_wClearFlagGetData
  0b80 ADCINC_iClearFlagGetData
  0b80 _ADCINC_wClearFlagGetData
  0b90 ADCINC_bClearFlagGetData
  0b90 ADCINC_cClearFlagGetData
  0b90 _ADCINC_bClearFlagGetData
  0b90 _ADCINC_cClearFlagGetData
  0b99 ADCINC_iGetData
  0b99 _ADCINC_wGetData
  0b99 _ADCINC_iGetData
  0b99 ADCINC_wGetData
  0ba1 _ADCINC_bGetData
  0ba1 _ADCINC_cGetData
  0ba1 ADCINC_cGetData
  0ba1 ADCINC_bGetData
  0ba7 ADCINC_fClearFlag
  0ba7 _ADCINC_fClearFlag
  0bb0 _ADCINC_WritePulseWidth
  0bb0 ADCINC_WritePulseWidth
  0bb3 bE2Write
  0bb3 _bE2Write
  0d46 E2Read
  0d46 _E2Read
  0dac _bFlashWriteBlock
  0dac bFlashWriteBlock
  0e1c _FlashBlockLocal1
  0e5e _FlashBlockLocal2
  0eb9 _FlashBlockLocal3
  0f49 _FlashReadBlock
  0f49 FlashReadBlock
  0fb4 __UserModules_end
  0fb4 __text_start
  0fb4 _cmemcpy
  1036 _loadSystemConfig
  1050 _updateSystemConfig
  1070 _loadDefaultSystemConfig
  10bc _loadDefaultUsers
  1108 _loadDefaultFactoryDefaults
  11c6 _searchUserCode
  1246 _validateMasterCode
  12a0 _updateMasterCode
  12c3 _validateUserCode
  12ef _updateUserCode
  132d _deleteUser
  1357 _deleteAllUsers
  1372 _findEmptyUserSlot
  139c _convertKey
  1486 _thumbTurnInLockPosition
  14b1 _thumbTurnInUnlockedPosition
  14dc _thumbTurnTestMode
  14ea _initializeSwitches
  1503 _checkThumbTurnChanged
  1646 _setDeadboltPinModeHiZ
  1671 _setDeadboltPinModePullDown
  167f _getDeadboltStateEx
  16bb _getDeadboltState
  16d0 _pwmPinMode
  16de _readKeypad
  170f _waitKeypadIdle
  173c _ISR_gpio
  1753 _ISR_timer16
  17b8 _ISR_sleepTimer
  1880 _delayInMsAwake
  18b9 _delayInMs
  1a68 _delayInMsSelect
  1a8d _calibrateILO
  1afe _calibrateMaybeILO
  1b17 _clearKeyBuffer
  1b39 _getAnyKey
  1c5e _getNumberKey
  1c88 _getKeyString
  1cc8 _getKeyStringEx
  1cf5 _mfgTestKeypad
  1d67 _mfgTestLEDs
  1dc4 _mfgTestMotor
  1e06 _mfgTestSwitches
  1ef9 _mfgTestVoltages
  1f80 _mfgTestDelay
  1fc1 _programmingModeEnter
  1fcf _programmingModeExit
  1fdd _programEmtekEx
  22d3 _programEmtek
  22fd _avPlay
  24e4 _indicateKeypress
  24f5 _indicateKeyStringComplete
  2506 _indicateSuccess
  2517 _indicateFailure
  2528 _indicateAccessDenied
  2539 _indicatePassageMode
  254a _indicateLockout
  255b _indicateLowBattery
  256c _indicateBlackoutMode
  257d _indicateProgrammingModeEntered
  258e _indicateLockoutOccurred
  259f _ledAllOff
  25ab _backlightEnable
  25c3 _backlightDisable
  25db _readBatteryVoltage
  2671 _checkBatteryVoltage
  26a4 _calculateMotorPWMDutyCycle
  273a _motorCommonRun
  28af _motorUnlock
  28b7 _motorLock
  28bf _unlockLockCycle
  28e9 _initSystem
  296d _scanKeypad
  2b1d _main
  2c10 __divmodu_32X32_32
  2c1f __i_div32_block_util
  2c82 __i_mulu8_block_util
  2c9f __mul16
  2cdd __mul_32X32_32
  2d63 _memcpyLMM
  2d72 _memcpy
  2d91 _memsetLMM
  2d9c _memset
  2dbf _memcmp
  2e90 __text_end
  2eab __xidata_end
  3e80 _E2PROM_RESERVED
  3e80 E2PROM_RESERVED

RAM symbol table (sorted by address)
  0000 Port_1_Data_SHADE
  0000 NO_SHADOW
  0000 _NO_SHADOW
  0000 _Port_1_Data_SHADE
  0000 __data_start
  0001 Port_2_Data_SHADE
  0001 _Port_2_Data_SHADE
  0002 Port_3_Data_SHADE
  0002 _Port_3_Data_SHADE
  0003 _Port_5_Data_SHADE
  0003 Port_5_Data_SHADE
  0004 _ADCINC_iResult
  0004 ADCINC_iResult
  0008 ADCINC_fStatus
  0008 _ADCINC_fStatus
  0009 ADCINC_bState
  0009 _ADCINC_bState
  000a _ADCINC_fMode
  000a ADCINC_fMode
  000b _ADCINC_bNumSamples
  000b ADCINC_bNumSamples
  000c _fillerBuffer3
  00cc _globalSystemVars
  00df __rZ
  00e0 __rY
  00e1 __rX
  00e2 __r11
  00e3 __r10
  00e4 __r9
  00e5 __r8
  00e6 __r7
  00e7 __r6
  00e8 __r5
  00e9 __r4
  00ea __r3
  00eb __r2
  00ec __r1
  00ed __r0
  00ee _globalSystemConfig
  00f8 SROM_Key1
  00f9 SROM_Key2
  00fa SROM_BlockID
  00fb SROM_Pointer
  00fc SROM_Clock
  00fd SROM_Reserved1
  00fe SROM_DELAY
  00ff SROM_Reserved
  0100 _fillerBuffer1
  0180 _fillerBuffer4
  01c0 _fillerBuffer2
  0200 _globalSystemFlags
  020f _codeVersion
  0211 _sleepInterruptCount
  0213 main.c:tick1ms
  0215 _timerInterruptCount
  0217 _secondsCounter

Memory usage map
  C = Config
  E = EEPROM
  I = Instructions
  L = Literal
  U = Unknown

  0000h: IIIIIIIIIIIIIIIIIIIIIIIIIIIIIIIIIIIIIIIIIIIIIIIIIIIIIIIIIIIIIIII
  0040h: IIIIIIIIIIIIIIIIIIIIIIIIIIIIIIIIIIIIIIIIIIIIIIIIIIIIIIIIIIIIIIII
  0080h: IIIIIIIIIIIIIIIIIIIIIIIIIIIIIIIIIIIIIIIIIIIIIIIIIIIIIIIIIIIIIIII
  00c0h: IIIIIIIIIIIIIIIIIIIIIIIIIIIIIIIIIIIIIIIIIIIIIIIIIIIIIIIIIIIIIIII
  0100h: IIIIIIIIIIIIIIIIIIIIIIIIIIIIIIIIIIIIIIIIIIIIIIIIIIIIIIIIIIIIIIII
  0140h: IIIIIIIIIIIIIIIIIIIIIIIIIIIIIIIIIIIIIIIIIIIIIIIIIIIIIIIIIIIIIIII
  0180h: IUUUUUUUUUUUUUUUUUUUUUUUUUUUUUUULLLLLLLLLLLLLLLLLLLLLLLLLLLLLLLL
  01c0h: LLLLLLLLLLLLLLLLLLLLLLLLLLLLLLLLLLLLLLLLLLLLLLLLLLLLLLLLLLLLLLLL
  0200h: LLLLLLLLLLLLLLLLLLLLLLLLLLLLLLLLLLLLLLLLLLLLLLLLLLLLLLLLLLLLLLLL
  0240h: LLLLLLLLLLLLLLLLLLLLLLLLLLLLLLLLLLLLLLLLLLLLLLLLLLLLLLLLLLLLLLLL
  0280h: LLLLLLLLLLLLLLLLLLLLLLLLLLLLLLLLLLLLLLLLLLLLLLLLLLLLLLLLLLLLLLLL
  02c0h: LLLLLLLLLLLLLLLLLLLLLLLLLLLLLLLLLLLLLLLLLLLLLLLLLLLLLLLLLLLLLLLL
  0300h: CCCCCCCCCCCCCCCCCCCCCCCCCCCCCCCCCCCCCCCCCCCCCCCCCCCCCCCCCCCCCCCC
  0340h: CCCCCCCCCCCCCCCCCCCCCCCCCCCCCCCCCCCCCCCCCCCCCCCCCCCCCCCCCCCCCCCC
  0380h: CCCCCCCCCCCCCCCCCCCCCCCCCCCCCCCCCCCCCCCCCCCCCCCCCCCCCCCCCCCCCCCC
  03c0h: CCCCCCCCCCCCCCCCCCCCCCCCCCCCCCCCCCCCCCCCCCCCCCCCCCCCCCCCCCCCCCCC
  0400h: CCCCCCCCCCCCCCCCCCCCCCCCCCCCCCCCCCCCCCCCCCCCCCCCCCCCCCCCCCCCCCCC
  0440h: CCCCCCCCCCCCCCCCCCCCCCCCCCCCCCCCCCCCCCCCCCCCCCCCCCCCCCCCCCCCCCCC
  0480h: CCCCCCCCCCCCCCCCCCCCCCCCCCCCCCCCCCCCCCCCCCCCCCCCCCCCCCCCCCCCCCCC
  04c0h: CCCCCCCCCCCCCCCCCCCCCCCCCCCCCCCCCCCCCCCCCCCCCCCCCCCCCCCCCCCCCCCC
  0500h: CCCCCCCCCCCCCCCCCCCCCCCCCCCCCCCCCCIIIIIIIIIIIIIIIIIIIIIIIIIIIIII
  0540h: IIIIIIIIIIIIIIIIIIIIIIIIIIIIIIIIIIIIIIIIIIIIIIIIIIIIIIIIIIIIIIII
  0580h: IIIIIIIIIIIIIIIIIIIIIIIIIIIIIIIIIIIIIIIIIIIIIIIIIIIIIIIIIIIIIIII
  05c0h: IIIIIIIIIIIIIIIIIIIIIIIIIIIIIIIIIIIIIIIIIIIIIIIIIIIIIIIIIIIIIIII
  0600h: IIIIIIIIIIIIIIIIIIIIIIIIIIIIIIIIIIIIIIIIIIIIIIIIIIIIIIIIIIIIIIII
  0640h: IIIIIIIIIIIIIIIIIIIIIIIIIIIIIIIIIIIIIIIIIIIIIIIIIIIIIIIIIIIIIIII
  0680h: IIIIIIIIIIIIIIIIIIIIIIIIIIIIIIIIIIIIIIIIIIIIIIIIIIIIIIIIIIIIIIII
  06c0h: IIIIIIIIIIIIIIIIIIIIIIIIIIIIIIIIIIIIIIIIIIIIIIIIIIIIIIIIIIIIIIII
  0700h: IIIIIIIIIIIIIIIIIIIIIIIIIIIIIIIIIIIIIIIIIIIIIIIIIIIIIIIIIIIIIIII
  0740h: IIIIIIIIIIIIIIIIIIIIIIIIIIIIIIIIIIIIIIIIIIIIIIIIIIIIIIIIIIIIIIII
  0780h: IIIIIIIIIIIIIIIIIIIIIIIIIIIIIIIIIIIIIIIIIIIIIIIIIIIIIIIIIIIIIIII
  07c0h: IIIIIIIIIIIIIIIIIIIIIIIIIIIIIIIIIIIIIIIIIIIIIIIIIIIIIIIIIIIIIIII
  0800h: IIIIIIIIIIIIIIIIIIIIIIIIIIIIIIIIIIIIIIIIIIIIIIIIIIIIIIIIIIIIIIII
  0840h: IIIIIIIIIIIIIIIIIIIIIIIIIIIIIIIIIIIIIIIIIIIIIIIIIIIIIIIIIIIIIIII
  0880h: IIIIIIIIIIIIIIIIIIIIIIIIIIIIIIIIIIIIIIIIIIIIIIIIIIIIIIIIIIIIIIII
  08c0h: IIIIIIIIIIIIIIIIIIIIIIIIIIIIIIIIIIIIIIIIIIIIIIIIIIIIIIIIIIIIIIII
  0900h: IIIIIIIIIIIIIIIIIIIIIIIIIIIIIIIIIIIIIIIIIIIIIIIIIIIIIIIIIIIIIIII
  0940h: IIIIIIIIIIIIIIIIIIIIIIIIIIIIIIIIIIIIIIIIIIIIIIIIIIIIIIIIIIIIIIII
  0980h: IIIIIIIIIIIIIIIIIIIIIIIIIIIIIIIIIIIIIIIIIIIIIIIIIIIIIIIIIIIIIIII
  09c0h: IIIIIIIIIIIIIIIIIIIIIIIIIIIIIIIIIIIIIIIIIIIIIIIIIIIIIIIIIIIIIIII
  0a00h: IIIIIIIIIIIIIIIIIIIIIIIIIIIIIIIIIIIIIIIIIIIIIIIIIIIIIIIIIIIIIIII
  0a40h: IIIIIIIIIIIIIIIIIIIIIIIIIIIIIIIIIIIIIIIIIIIIIIIIIIIIIIIIIIIIIIII
  0a80h: IIIIIIIIIIIIIIIIIIIIIIIIIIIIIIIIIIIIIIIIIIIIIIIIIIIIIIIIIIIIIIII
  0ac0h: IIIIIIIIIIIIIIIIIIIIIIIIIIIIIIIIIIIIIIIIIIIIIIIIIIIIIIIIIIIIIIII
  0b00h: IIIIIIIIIIIIIIIIIIIIIIIIIIIIIIIIIIIIIIIIIIIIIIIIIIIIIIIIIIIIIIII
  0b40h: IIIIIIIIIIIIIIIIIIIIIIIIIIIIIIIIIIIIIIIIIIIIIIIIIIIIIIIIIIIIIIII
  0b80h: IIIIIIIIIIIIIIIIIIIIIIIIIIIIIIIIIIIIIIIIIIIIIIIIIIIIIIIIIIIIIIII
  0bc0h: IIIIIIIIIIIIIIIIIIIIIIIIIIIIIIIIIIIIIIIIIIIIIIIIIIIIIIIIIIIIIIII
  0c00h: IIIIIIIIIIIIIIIIIIIIIIIIIIIIIIIIIIIIIIIIIIIIIIIIIIIIIIIIIIIIIIII
  0c40h: IIIIIIIIIIIIIIIIIIIIIIIIIIIIIIIIIIIIIIIIIIIIIIIIIIIIIIIIIIIIIIII
  0c80h: IIIIIIIIIIIIIIIIIIIIIIIIIIIIIIIIIIIIIIIIIIIIIIIIIIIIIIIIIIIIIIII
  0cc0h: IIIIIIIIIIIIIIIIIIIIIIIIIIIIIIIIIIIIIIIIIIIIIIIIIIIIIIIIIIIIIIII
  0d00h: IIIIIIIIIIIIIIIIIIIIIIIIIIIIIIIIIIIIIIIIIIIIIIIIIIIIIIIIIIIIIIII
  0d40h: IIIIIIIIIIIIIIIIIIIIIIIIIIIIIIIIIIIIIIIIIIIIIIIIIIIIIIIIIIIIIIII
  0d80h: IIIIIIIIIIIIIIIIIIIIIIIIIIIIIIIIIIIIIIIIIIIIIIIIIIIIIIIIIIIIIIII
  0dc0h: IIIIIIIIIIIIIIIIIIIIIIIIIIIIIIIIIIIIIIIIIIIIIIIIIIIIIIIIIIIIIIII
  0e00h: IIIIIIIIIIIIIIIIIIIIIIIIIIIIIIIIIIIIIIIIIIIIIIIIIIIIIIIIIIIIIIII
  0e40h: IIIIIIIIIIIIIIIIIIIIIIIIIIIIIIIIIIIIIIIIIIIIIIIIIIIIIIIIIIIIIIII
  0e80h: IIIIIIIIIIIIIIIIIIIIIIIIIIIIIIIIIIIIIIIIIIIIIIIIIIIIIIIIIIIIIIII
  0ec0h: IIIIIIIIIIIIIIIIIIIIIIIIIIIIIIIIIIIIIIIIIIIIIIIIIIIIIIIIIIIIIIII
  0f00h: IIIIIIIIIIIIIIIIIIIIIIIIIIIIIIIIIIIIIIIIIIIIIIIIIIIIIIIIIIIIIIII
  0f40h: IIIIIIIIIIIIIIIIIIIIIIIIIIIIIIIIIIIIIIIIIIIIIIIIIIIIIIIIIIIIIIII
  0f80h: IIIIIIIIIIIIIIIIIIIIIIIIIIIIIIIIIIIIIIIIIIIIIIIIIIIIIIIIIIIIIIII
  0fc0h: IIIIIIIIIIIIIIIIIIIIIIIIIIIIIIIIIIIIIIIIIIIIIIIIIIIIIIIIIIIIIIII
  1000h: IIIIIIIIIIIIIIIIIIIIIIIIIIIIIIIIIIIIIIIIIIIIIIIIIIIIIIIIIIIIIIII
  1040h: IIIIIIIIIIIIIIIIIIIIIIIIIIIIIIIIIIIIIIIIIIIIIIIIIIIIIIIIIIIIIIII
  1080h: IIIIIIIIIIIIIIIIIIIIIIIIIIIIIIIIIIIIIIIIIIIIIIIIIIIIIIIIIIIIIIII
  10c0h: IIIIIIIIIIIIIIIIIIIIIIIIIIIIIIIIIIIIIIIIIIIIIIIIIIIIIIIIIIIIIIII
  1100h: IIIIIIIIIIIIIIIIIIIIIIIIIIIIIIIIIIIIIIIIIIIIIIIIIIIIIIIIIIIIIIII
  1140h: IIIIIIIIIIIIIIIIIIIIIIIIIIIIIIIIIIIIIIIIIIIIIIIIIIIIIIIIIIIIIIII
  1180h: IIIIIIIIIIIIIIIIIIIIIIIIIIIIIIIIIIIIIIIIIIIIIIIIIIIIIIIIIIIIIIII
  11c0h: IIIIIIIIIIIIIIIIIIIIIIIIIIIIIIIIIIIIIIIIIIIIIIIIIIIIIIIIIIIIIIII
  1200h: IIIIIIIIIIIIIIIIIIIIIIIIIIIIIIIIIIIIIIIIIIIIIIIIIIIIIIIIIIIIIIII
  1240h: IIIIIIIIIIIIIIIIIIIIIIIIIIIIIIIIIIIIIIIIIIIIIIIIIIIIIIIIIIIIIIII
  1280h: IIIIIIIIIIIIIIIIIIIIIIIIIIIIIIIIIIIIIIIIIIIIIIIIIIIIIIIIIIIIIIII
  12c0h: IIIIIIIIIIIIIIIIIIIIIIIIIIIIIIIIIIIIIIIIIIIIIIIIIIIIIIIIIIIIIIII
  1300h: IIIIIIIIIIIIIIIIIIIIIIIIIIIIIIIIIIIIIIIIIIIIIIIIIIIIIIIIIIIIIIII
  1340h: IIIIIIIIIIIIIIIIIIIIIIIIIIIIIIIIIIIIIIIIIIIIIIIIIIIIIIIIIIIIIIII
  1380h: IIIIIIIIIIIIIIIIIIIIIIIIIIIIIIIIIIIIIIIIIIIIIIIIIIIIIIIIIIIIIIII
  13c0h: IIIIIIIIIIIIIIIIIIIIIIIIIIIIIIIIIIIIIIIIIIIIIIIIIIIIIIIIIIIIIIII
  1400h: IIIIIIIIIIIIIIIIIIIIIIIIIIIIIIIIIIIIIIIIIIIIIIIIIIIIIIIIIIIIIIII
  1440h: IIIIIIIIIIIIIIIIIIIIIIIIIIIIIIIIIIIIIIIIIIIIIIIIIIIIIIIIIIIIIIII
  1480h: IIIIIIIIIIIIIIIIIIIIIIIIIIIIIIIIIIIIIIIIIIIIIIIIIIIIIIIIIIIIIIII
  14c0h: IIIIIIIIIIIIIIIIIIIIIIIIIIIIIIIIIIIIIIIIIIIIIIIIIIIIIIIIIIIIIIII
  1500h: IIIIIIIIIIIIIIIIIIIIIIIIIIIIIIIIIIIIIIIIIIIIIIIIIIIIIIIIIIIIIIII
  1540h: IIIIIIIIIIIIIIIIIIIIIIIIIIIIIIIIIIIIIIIIIIIIIIIIIIIIIIIIIIIIIIII
  1580h: IIIIIIIIIIIIIIIIIIIIIIIIIIIIIIIIIIIIIIIIIIIIIIIIIIIIIIIIIIIIIIII
  15c0h: IIIIIIIIIIIIIIIIIIIIIIIIIIIIIIIIIIIIIIIIIIIIIIIIIIIIIIIIIIIIIIII
  1600h: IIIIIIIIIIIIIIIIIIIIIIIIIIIIIIIIIIIIIIIIIIIIIIIIIIIIIIIIIIIIIIII
  1640h: IIIIIIIIIIIIIIIIIIIIIIIIIIIIIIIIIIIIIIIIIIIIIIIIIIIIIIIIIIIIIIII
  1680h: IIIIIIIIIIIIIIIIIIIIIIIIIIIIIIIIIIIIIIIIIIIIIIIIIIIIIIIIIIIIIIII
  16c0h: IIIIIIIIIIIIIIIIIIIIIIIIIIIIIIIIIIIIIIIIIIIIIIIIIIIIIIIIIIIIIIII
  1700h: IIIIIIIIIIIIIIIIIIIIIIIIIIIIIIIIIIIIIIIIIIIIIIIIIIIIIIIIIIIIIIII
  1740h: IIIIIIIIIIIIIIIIIIIIIIIIIIIIIIIIIIIIIIIIIIIIIIIIIIIIIIIIIIIIIIII
  1780h: IIIIIIIIIIIIIIIIIIIIIIIIIIIIIIIIIIIIIIIIIIIIIIIIIIIIIIIIIIIIIIII
  17c0h: IIIIIIIIIIIIIIIIIIIIIIIIIIIIIIIIIIIIIIIIIIIIIIIIIIIIIIIIIIIIIIII
  1800h: IIIIIIIIIIIIIIIIIIIIIIIIIIIIIIIIIIIIIIIIIIIIIIIIIIIIIIIIIIIIIIII
  1840h: IIIIIIIIIIIIIIIIIIIIIIIIIIIIIIIIIIIIIIIIIIIIIIIIIIIIIIIIIIIIIIII
  1880h: IIIIIIIIIIIIIIIIIIIIIIIIIIIIIIIIIIIIIIIIIIIIIIIIIIIIIIIIIIIIIIII
  18c0h: IIIIIIIIIIIIIIIIIIIIIIIIIIIIIIIIIIIIIIIIIIIIIIIIIIIIIIIIIIIIIIII
  1900h: IIIIIIIIIIIIIIIIIIIIIIIIIIIIIIIIIIIIIIIIIIIIIIIIIIIIIIIIIIIIIIII
  1940h: IIIIIIIIIIIIIIIIIIIIIIIIIIIIIIIIIIIIIIIIIIIIIIIIIIIIIIIIIIIIIIII
  1980h: IIIIIIIIIIIIIIIIIIIIIIIIIIIIIIIIIIIIIIIIIIIIIIIIIIIIIIIIIIIIIIII
  19c0h: IIIIIIIIIIIIIIIIIIIIIIIIIIIIIIIIIIIIIIIIIIIIIIIIIIIIIIIIIIIIIIII
  1a00h: IIIIIIIIIIIIIIIIIIIIIIIIIIIIIIIIIIIIIIIIIIIIIIIIIIIIIIIIIIIIIIII
  1a40h: IIIIIIIIIIIIIIIIIIIIIIIIIIIIIIIIIIIIIIIIIIIIIIIIIIIIIIIIIIIIIIII
  1a80h: IIIIIIIIIIIIIIIIIIIIIIIIIIIIIIIIIIIIIIIIIIIIIIIIIIIIIIIIIIIIIIII
  1ac0h: IIIIIIIIIIIIIIIIIIIIIIIIIIIIIIIIIIIIIIIIIIIIIIIIIIIIIIIIIIIIIIII
  1b00h: IIIIIIIIIIIIIIIIIIIIIIIIIIIIIIIIIIIIIIIIIIIIIIIIIIIIIIIIIIIIIIII
  1b40h: IIIIIIIIIIIIIIIIIIIIIIIIIIIIIIIIIIIIIIIIIIIIIIIIIIIIIIIIIIIIIIII
  1b80h: IIIIIIIIIIIIIIIIIIIIIIIIIIIIIIIIIIIIIIIIIIIIIIIIIIIIIIIIIIIIIIII
  1bc0h: IIIIIIIIIIIIIIIIIIIIIIIIIIIIIIIIIIIIIIIIIIIIIIIIIIIIIIIIIIIIIIII
  1c00h: IIIIIIIIIIIIIIIIIIIIIIIIIIIIIIIIIIIIIIIIIIIIIIIIIIIIIIIIIIIIIIII
  1c40h: IIIIIIIIIIIIIIIIIIIIIIIIIIIIIIIIIIIIIIIIIIIIIIIIIIIIIIIIIIIIIIII
  1c80h: IIIIIIIIIIIIIIIIIIIIIIIIIIIIIIIIIIIIIIIIIIIIIIIIIIIIIIIIIIIIIIII
  1cc0h: IIIIIIIIIIIIIIIIIIIIIIIIIIIIIIIIIIIIIIIIIIIIIIIIIIIIIIIIIIIIIIII
  1d00h: IIIIIIIIIIIIIIIIIIIIIIIIIIIIIIIIIIIIIIIIIIIIIIIIIIIIIIIIIIIIIIII
  1d40h: IIIIIIIIIIIIIIIIIIIIIIIIIIIIIIIIIIIIIIIIIIIIIIIIIIIIIIIIIIIIIIII
  1d80h: IIIIIIIIIIIIIIIIIIIIIIIIIIIIIIIIIIIIIIIIIIIIIIIIIIIIIIIIIIIIIIII
  1dc0h: IIIIIIIIIIIIIIIIIIIIIIIIIIIIIIIIIIIIIIIIIIIIIIIIIIIIIIIIIIIIIIII
  1e00h: IIIIIIIIIIIIIIIIIIIIIIIIIIIIIIIIIIIIIIIIIIIIIIIIIIIIIIIIIIIIIIII
  1e40h: IIIIIIIIIIIIIIIIIIIIIIIIIIIIIIIIIIIIIIIIIIIIIIIIIIIIIIIIIIIIIIII
  1e80h: IIIIIIIIIIIIIIIIIIIIIIIIIIIIIIIIIIIIIIIIIIIIIIIIIIIIIIIIIIIIIIII
  1ec0h: IIIIIIIIIIIIIIIIIIIIIIIIIIIIIIIIIIIIIIIIIIIIIIIIIIIIIIIIIIIIIIII
  1f00h: IIIIIIIIIIIIIIIIIIIIIIIIIIIIIIIIIIIIIIIIIIIIIIIIIIIIIIIIIIIIIIII
  1f40h: IIIIIIIIIIIIIIIIIIIIIIIIIIIIIIIIIIIIIIIIIIIIIIIIIIIIIIIIIIIIIIII
  1f80h: IIIIIIIIIIIIIIIIIIIIIIIIIIIIIIIIIIIIIIIIIIIIIIIIIIIIIIIIIIIIIIII
  1fc0h: IIIIIIIIIIIIIIIIIIIIIIIIIIIIIIIIIIIIIIIIIIIIIIIIIIIIIIIIIIIIIIII
  2000h: IIIIIIIIIIIIIIIIIIIIIIIIIIIIIIIIIIIIIIIIIIIIIIIIIIIIIIIIIIIIIIII
  2040h: IIIIIIIIIIIIIIIIIIIIIIIIIIIIIIIIIIIIIIIIIIIIIIIIIIIIIIIIIIIIIIII
  2080h: IIIIIIIIIIIIIIIIIIIIIIIIIIIIIIIIIIIIIIIIIIIIIIIIIIIIIIIIIIIIIIII
  20c0h: IIIIIIIIIIIIIIIIIIIIIIIIIIIIIIIIIIIIIIIIIIIIIIIIIIIIIIIIIIIIIIII
  2100h: IIIIIIIIIIIIIIIIIIIIIIIIIIIIIIIIIIIIIIIIIIIIIIIIIIIIIIIIIIIIIIII
  2140h: IIIIIIIIIIIIIIIIIIIIIIIIIIIIIIIIIIIIIIIIIIIIIIIIIIIIIIIIIIIIIIII
  2180h: IIIIIIIIIIIIIIIIIIIIIIIIIIIIIIIIIIIIIIIIIIIIIIIIIIIIIIIIIIIIIIII
  21c0h: IIIIIIIIIIIIIIIIIIIIIIIIIIIIIIIIIIIIIIIIIIIIIIIIIIIIIIIIIIIIIIII
  2200h: IIIIIIIIIIIIIIIIIIIIIIIIIIIIIIIIIIIIIIIIIIIIIIIIIIIIIIIIIIIIIIII
  2240h: IIIIIIIIIIIIIIIIIIIIIIIIIIIIIIIIIIIIIIIIIIIIIIIIIIIIIIIIIIIIIIII
  2280h: IIIIIIIIIIIIIIIIIIIIIIIIIIIIIIIIIIIIIIIIIIIIIIIIIIIIIIIIIIIIIIII
  22c0h: IIIIIIIIIIIIIIIIIIIIIIIIIIIIIIIIIIIIIIIIIIIIIIIIIIIIIIIIIIIIIIII
  2300h: IIIIIIIIIIIIIIIIIIIIIIIIIIIIIIIIIIIIIIIIIIIIIIIIIIIIIIIIIIIIIIII
  2340h: IIIIIIIIIIIIIIIIIIIIIIIIIIIIIIIIIIIIIIIIIIIIIIIIIIIIIIIIIIIIIIII
  2380h: IIIIIIIIIIIIIIIIIIIIIIIIIIIIIIIIIIIIIIIIIIIIIIIIIIIIIIIIIIIIIIII
  23c0h: IIIIIIIIIIIIIIIIIIIIIIIIIIIIIIIIIIIIIIIIIIIIIIIIIIIIIIIIIIIIIIII
  2400h: IIIIIIIIIIIIIIIIIIIIIIIIIIIIIIIIIIIIIIIIIIIIIIIIIIIIIIIIIIIIIIII
  2440h: IIIIIIIIIIIIIIIIIIIIIIIIIIIIIIIIIIIIIIIIIIIIIIIIIIIIIIIIIIIIIIII
  2480h: IIIIIIIIIIIIIIIIIIIIIIIIIIIIIIIIIIIIIIIIIIIIIIIIIIIIIIIIIIIIIIII
  24c0h: IIIIIIIIIIIIIIIIIIIIIIIIIIIIIIIIIIIIIIIIIIIIIIIIIIIIIIIIIIIIIIII
  2500h: IIIIIIIIIIIIIIIIIIIIIIIIIIIIIIIIIIIIIIIIIIIIIIIIIIIIIIIIIIIIIIII
  2540h: IIIIIIIIIIIIIIIIIIIIIIIIIIIIIIIIIIIIIIIIIIIIIIIIIIIIIIIIIIIIIIII
  2580h: IIIIIIIIIIIIIIIIIIIIIIIIIIIIIIIIIIIIIIIIIIIIIIIIIIIIIIIIIIIIIIII
  25c0h: IIIIIIIIIIIIIIIIIIIIIIIIIIIIIIIIIIIIIIIIIIIIIIIIIIIIIIIIIIIIIIII
  2600h: IIIIIIIIIIIIIIIIIIIIIIIIIIIIIIIIIIIIIIIIIIIIIIIIIIIIIIIIIIIIIIII
  2640h: IIIIIIIIIIIIIIIIIIIIIIIIIIIIIIIIIIIIIIIIIIIIIIIIIIIIIIIIIIIIIIII
  2680h: IIIIIIIIIIIIIIIIIIIIIIIIIIIIIIIIIIIIIIIIIIIIIIIIIIIIIIIIIIIIIIII
  26c0h: IIIIIIIIIIIIIIIIIIIIIIIIIIIIIIIIIIIIIIIIIIIIIIIIIIIIIIIIIIIIIIII
  2700h: IIIIIIIIIIIIIIIIIIIIIIIIIIIIIIIIIIIIIIIIIIIIIIIIIIIIIIIIIIIIIIII
  2740h: IIIIIIIIIIIIIIIIIIIIIIIIIIIIIIIIIIIIIIIIIIIIIIIIIIIIIIIIIIIIIIII
  2780h: IIIIIIIIIIIIIIIIIIIIIIIIIIIIIIIIIIIIIIIIIIIIIIIIIIIIIIIIIIIIIIII
  27c0h: IIIIIIIIIIIIIIIIIIIIIIIIIIIIIIIIIIIIIIIIIIIIIIIIIIIIIIIIIIIIIIII
  2800h: IIIIIIIIIIIIIIIIIIIIIIIIIIIIIIIIIIIIIIIIIIIIIIIIIIIIIIIIIIIIIIII
  2840h: IIIIIIIIIIIIIIIIIIIIIIIIIIIIIIIIIIIIIIIIIIIIIIIIIIIIIIIIIIIIIIII
  2880h: IIIIIIIIIIIIIIIIIIIIIIIIIIIIIIIIIIIIIIIIIIIIIIIIIIIIIIIIIIIIIIII
  28c0h: IIIIIIIIIIIIIIIIIIIIIIIIIIIIIIIIIIIIIIIIIIIIIIIIIIIIIIIIIIIIIIII
  2900h: IIIIIIIIIIIIIIIIIIIIIIIIIIIIIIIIIIIIIIIIIIIIIIIIIIIIIIIIIIIIIIII
  2940h: IIIIIIIIIIIIIIIIIIIIIIIIIIIIIIIIIIIIIIIIIIIIIIIIIIIIIIIIIIIIIIII
  2980h: IIIIIIIIIIIIIIIIIIIIIIIIIIIIIIIIIIIIIIIIIIIIIIIIIIIIIIIIIIIIIIII
  29c0h: IIIIIIIIIIIIIIIIIIIIIIIIIIIIIIIIIIIIIIIIIIIIIIIIIIIIIIIIIIIIIIII
  2a00h: IIIIIIIIIIIIIIIIIIIIIIIIIIIIIIIIIIIIIIIIIIIIIIIIIIIIIIIIIIIIIIII
  2a40h: IIIIIIIIIIIIIIIIIIIIIIIIIIIIIIIIIIIIIIIIIIIIIIIIIIIIIIIIIIIIIIII
  2a80h: IIIIIIIIIIIIIIIIIIIIIIIIIIIIIIIIIIIIIIIIIIIIIIIIIIIIIIIIIIIIIIII
  2ac0h: IIIIIIIIIIIIIIIIIIIIIIIIIIIIIIIIIIIIIIIIIIIIIIIIIIIIIIIIIIIIIIII
  2b00h: IIIIIIIIIIIIIIIIIIIIIIIIIIIIIIIIIIIIIIIIIIIIIIIIIIIIIIIIIIIIIIII
  2b40h: IIIIIIIIIIIIIIIIIIIIIIIIIIIIIIIIIIIIIIIIIIIIIIIIIIIIIIIIIIIIIIII
  2b80h: IIIIIIIIIIIIIIIIIIIIIIIIIIIIIIIIIIIIIIIIIIIIIIIIIIIIIIIIIIIIIIII
  2bc0h: IIIIIIIIIIIIIIIIIIIIIIIIIIIIIIIIIIIIIIIIIIIIIIIIIIIIIIIIIIIIIIII
  2c00h: IIIIIIIIIIIIIIIIIIIIIIIIIIIIIIIIIIIIIIIIIIIIIIIIIIIIIIIIIIIIIIII
  2c40h: IIIIIIIIIIIIIIIIIIIIIIIIIIIIIIIIIIIIIIIIIIIIIIIIIIIIIIIIIIIIIIII
  2c80h: IIIIIIIIIIIIIIIIIIIIIIIIIIIIIIIIIIIIIIIIIIIIIIIIIIIIIIIIIIIIIIII
  2cc0h: IIIIIIIIIIIIIIIIIIIIIIIIIIIIIIIIIIIIIIIIIIIIIIIIIIIIIIIIIIIIIIII
  2d00h: IIIIIIIIIIIIIIIIIIIIIIIIIIIIIIIIIIIIIIIIIIIIIIIIIIIIIIIIIIIIIIII
  2d40h: IIIIIIIIIIIIIIIIIIIIIIIIIIIIIIIIIIIIIIIIIIIIIIIIIIIIIIIIIIIIIIII
  2d80h: IIIIIIIIIIIIIIIIIIIIIIIIIIIIIIIIIIIIIIIIIIIIIIIIIIIIIIIIIIIIIIII
  2dc0h: IIIIIIIIIIIIIIIIIIIIIIIIIIIIIIIIIIIIIIIIIIIIIIIIIIIIIIIIIIIIIIII
  2e00h: IIIIIIIIIIIIIIIIIIIIIIIIIIIIIIIIIIIIIIIIIIIIIIIIIIIIIIIIIIIIIIII
  2e40h: IIIIIIIIIIIIIIIIIIIIIIIIIIIIIIIIIIIIIIIIIIIIIIIIIIIIIIIIIIIIIIII
  2e80h: IIIIIIIIIIIIIIIIUUUUUUUUUUUUUUUUUUUUUUUUUUUUUUUUUUUUUUUUUUUUUUUU
  2ec0h: UUUUUUUUUUUUUUUUUUUUUUUUUUUUUUUUUUUUUUUUUUUUUUUUUUUUUUUUUUUUUUUU
  2f00h: UUUUUUUUUUUUUUUUUUUUUUUUUUUUUUUUUUUUUUUUUUUUUUUUUUUUUUUUUUUUUUUU
  2f40h: UUUUUUUUUUUUUUUUUUUUUUUUUUUUUUUUUUUUUUUUUUUUUUUUUUUUUUUUUUUUUUUU
  2f80h: UUUUUUUUUUUUUUUUUUUUUUUUUUUUUUUUUUUUUUUUUUUUUUUUUUUUUUUUUUUUUUUU
  2fc0h: UUUUUUUUUUUUUUUUUUUUUUUUUUUUUUUUUUUUUUUUUUUUUUUUUUUUUUUUUUUUUUUU
  3000h: UUUUUUUUUUUUUUUUUUUUUUUUUUUUUUUUUUUUUUUUUUUUUUUUUUUUUUUUUUUUUUUU
  3040h: UUUUUUUUUUUUUUUUUUUUUUUUUUUUUUUUUUUUUUUUUUUUUUUUUUUUUUUUUUUUUUUU
  3080h: UUUUUUUUUUUUUUUUUUUUUUUUUUUUUUUUUUUUUUUUUUUUUUUUUUUUUUUUUUUUUUUU
  30c0h: UUUUUUUUUUUUUUUUUUUUUUUUUUUUUUUUUUUUUUUUUUUUUUUUUUUUUUUUUUUUUUUU
  3100h: UUUUUUUUUUUUUUUUUUUUUUUUUUUUUUUUUUUUUUUUUUUUUUUUUUUUUUUUUUUUUUUU
  3140h: UUUUUUUUUUUUUUUUUUUUUUUUUUUUUUUUUUUUUUUUUUUUUUUUUUUUUUUUUUUUUUUU
  3180h: UUUUUUUUUUUUUUUUUUUUUUUUUUUUUUUUUUUUUUUUUUUUUUUUUUUUUUUUUUUUUUUU
  31c0h: UUUUUUUUUUUUUUUUUUUUUUUUUUUUUUUUUUUUUUUUUUUUUUUUUUUUUUUUUUUUUUUU
  3200h: UUUUUUUUUUUUUUUUUUUUUUUUUUUUUUUUUUUUUUUUUUUUUUUUUUUUUUUUUUUUUUUU
  3240h: UUUUUUUUUUUUUUUUUUUUUUUUUUUUUUUUUUUUUUUUUUUUUUUUUUUUUUUUUUUUUUUU
  3280h: UUUUUUUUUUUUUUUUUUUUUUUUUUUUUUUUUUUUUUUUUUUUUUUUUUUUUUUUUUUUUUUU
  32c0h: UUUUUUUUUUUUUUUUUUUUUUUUUUUUUUUUUUUUUUUUUUUUUUUUUUUUUUUUUUUUUUUU
  3300h: UUUUUUUUUUUUUUUUUUUUUUUUUUUUUUUUUUUUUUUUUUUUUUUUUUUUUUUUUUUUUUUU
  3340h: UUUUUUUUUUUUUUUUUUUUUUUUUUUUUUUUUUUUUUUUUUUUUUUUUUUUUUUUUUUUUUUU
  3380h: UUUUUUUUUUUUUUUUUUUUUUUUUUUUUUUUUUUUUUUUUUUUUUUUUUUUUUUUUUUUUUUU
  33c0h: UUUUUUUUUUUUUUUUUUUUUUUUUUUUUUUUUUUUUUUUUUUUUUUUUUUUUUUUUUUUUUUU
  3400h: UUUUUUUUUUUUUUUUUUUUUUUUUUUUUUUUUUUUUUUUUUUUUUUUUUUUUUUUUUUUUUUU
  3440h: UUUUUUUUUUUUUUUUUUUUUUUUUUUUUUUUUUUUUUUUUUUUUUUUUUUUUUUUUUUUUUUU
  3480h: UUUUUUUUUUUUUUUUUUUUUUUUUUUUUUUUUUUUUUUUUUUUUUUUUUUUUUUUUUUUUUUU
  34c0h: UUUUUUUUUUUUUUUUUUUUUUUUUUUUUUUUUUUUUUUUUUUUUUUUUUUUUUUUUUUUUUUU
  3500h: UUUUUUUUUUUUUUUUUUUUUUUUUUUUUUUUUUUUUUUUUUUUUUUUUUUUUUUUUUUUUUUU
  3540h: UUUUUUUUUUUUUUUUUUUUUUUUUUUUUUUUUUUUUUUUUUUUUUUUUUUUUUUUUUUUUUUU
  3580h: UUUUUUUUUUUUUUUUUUUUUUUUUUUUUUUUUUUUUUUUUUUUUUUUUUUUUUUUUUUUUUUU
  35c0h: UUUUUUUUUUUUUUUUUUUUUUUUUUUUUUUUUUUUUUUUUUUUUUUUUUUUUUUUUUUUUUUU
  3600h: UUUUUUUUUUUUUUUUUUUUUUUUUUUUUUUUUUUUUUUUUUUUUUUUUUUUUUUUUUUUUUUU
  3640h: UUUUUUUUUUUUUUUUUUUUUUUUUUUUUUUUUUUUUUUUUUUUUUUUUUUUUUUUUUUUUUUU
  3680h: UUUUUUUUUUUUUUUUUUUUUUUUUUUUUUUUUUUUUUUUUUUUUUUUUUUUUUUUUUUUUUUU
  36c0h: UUUUUUUUUUUUUUUUUUUUUUUUUUUUUUUUUUUUUUUUUUUUUUUUUUUUUUUUUUUUUUUU
  3700h: UUUUUUUUUUUUUUUUUUUUUUUUUUUUUUUUUUUUUUUUUUUUUUUUUUUUUUUUUUUUUUUU
  3740h: UUUUUUUUUUUUUUUUUUUUUUUUUUUUUUUUUUUUUUUUUUUUUUUUUUUUUUUUUUUUUUUU
  3780h: UUUUUUUUUUUUUUUUUUUUUUUUUUUUUUUUUUUUUUUUUUUUUUUUUUUUUUUUUUUUUUUU
  37c0h: UUUUUUUUUUUUUUUUUUUUUUUUUUUUUUUUUUUUUUUUUUUUUUUUUUUUUUUUUUUUUUUU
  3800h: UUUUUUUUUUUUUUUUUUUUUUUUUUUUUUUUUUUUUUUUUUUUUUUUUUUUUUUUUUUUUUUU
  3840h: UUUUUUUUUUUUUUUUUUUUUUUUUUUUUUUUUUUUUUUUUUUUUUUUUUUUUUUUUUUUUUUU
  3880h: UUUUUUUUUUUUUUUUUUUUUUUUUUUUUUUUUUUUUUUUUUUUUUUUUUUUUUUUUUUUUUUU
  38c0h: UUUUUUUUUUUUUUUUUUUUUUUUUUUUUUUUUUUUUUUUUUUUUUUUUUUUUUUUUUUUUUUU
  3900h: UUUUUUUUUUUUUUUUUUUUUUUUUUUUUUUUUUUUUUUUUUUUUUUUUUUUUUUUUUUUUUUU
  3940h: UUUUUUUUUUUUUUUUUUUUUUUUUUUUUUUUUUUUUUUUUUUUUUUUUUUUUUUUUUUUUUUU
  3980h: UUUUUUUUUUUUUUUUUUUUUUUUUUUUUUUUUUUUUUUUUUUUUUUUUUUUUUUUUUUUUUUU
  39c0h: UUUUUUUUUUUUUUUUUUUUUUUUUUUUUUUUUUUUUUUUUUUUUUUUUUUUUUUUUUUUUUUU
  3a00h: UUUUUUUUUUUUUUUUUUUUUUUUUUUUUUUUUUUUUUUUUUUUUUUUUUUUUUUUUUUUUUUU
  3a40h: UUUUUUUUUUUUUUUUUUUUUUUUUUUUUUUUUUUUUUUUUUUUUUUUUUUUUUUUUUUUUUUU
  3a80h: UUUUUUUUUUUUUUUUUUUUUUUUUUUUUUUUUUUUUUUUUUUUUUUUUUUUUUUUUUUUUUUU
  3ac0h: UUUUUUUUUUUUUUUUUUUUUUUUUUUUUUUUUUUUUUUUUUUUUUUUUUUUUUUUUUUUUUUU
  3b00h: UUUUUUUUUUUUUUUUUUUUUUUUUUUUUUUUUUUUUUUUUUUUUUUUUUUUUUUUUUUUUUUU
  3b40h: UUUUUUUUUUUUUUUUUUUUUUUUUUUUUUUUUUUUUUUUUUUUUUUUUUUUUUUUUUUUUUUU
  3b80h: UUUUUUUUUUUUUUUUUUUUUUUUUUUUUUUUUUUUUUUUUUUUUUUUUUUUUUUUUUUUUUUU
  3bc0h: UUUUUUUUUUUUUUUUUUUUUUUUUUUUUUUUUUUUUUUUUUUUUUUUUUUUUUUUUUUUUUUU
  3c00h: UUUUUUUUUUUUUUUUUUUUUUUUUUUUUUUUUUUUUUUUUUUUUUUUUUUUUUUUUUUUUUUU
  3c40h: UUUUUUUUUUUUUUUUUUUUUUUUUUUUUUUUUUUUUUUUUUUUUUUUUUUUUUUUUUUUUUUU
  3c80h: UUUUUUUUUUUUUUUUUUUUUUUUUUUUUUUUUUUUUUUUUUUUUUUUUUUUUUUUUUUUUUUU
  3cc0h: UUUUUUUUUUUUUUUUUUUUUUUUUUUUUUUUUUUUUUUUUUUUUUUUUUUUUUUUUUUUUUUU
  3d00h: UUUUUUUUUUUUUUUUUUUUUUUUUUUUUUUUUUUUUUUUUUUUUUUUUUUUUUUUUUUUUUUU
  3d40h: UUUUUUUUUUUUUUUUUUUUUUUUUUUUUUUUUUUUUUUUUUUUUUUUUUUUUUUUUUUUUUUU
  3d80h: UUUUUUUUUUUUUUUUUUUUUUUUUUUUUUUUUUUUUUUUUUUUUUUUUUUUUUUUUUUUUUUU
  3dc0h: UUUUUUUUUUUUUUUUUUUUUUUUUUUUUUUUUUUUUUUUUUUUUUUUUUUUUUUUUUUUUUUU
  3e00h: UUUUUUUUUUUUUUUUUUUUUUUUUUUUUUUUUUUUUUUUUUUUUUUUUUUUUUUUUUUUUUUU
  3e40h: UUUUUUUUUUUUUUUUUUUUUUUUUUUUUUUUUUUUUUUUUUUUUUUUUUUUUUUUUUUUUUUU
  3e80h: EEEEEEEEEEEEEEEEEEEEEEEEEEEEEEEEEEEEEEEEEEEEEEEEEEEEEEEEEEEEEEEE
  3ec0h: EEEEEEEEEEEEEEEEEEEEEEEEEEEEEEEEEEEEEEEEEEEEEEEEEEEEEEEEEEEEEEEE
  3f00h: EEEEEEEEEEEEEEEEEEEEEEEEEEEEEEEEEEEEEEEEEEEEEEEEEEEEEEEEEEEEEEEE
  3f40h: EEEEEEEEEEEEEEEEEEEEEEEEEEEEEEEEEEEEEEEEEEEEEEEEEEEEEEEEEEEEEEEE
  3f80h: EEEEEEEEEEEEEEEEEEEEEEEEEEEEEEEEEEEEEEEEEEEEEEEEEEEEEEEEEEEEEEEE
  3fc0h: EEEEEEEEEEEEEEEEEEEEEEEEEEEEEEEEEEEEEEEEEEEEEEEEEEEEEEEEEEEEEEEE

Dump of memory loaded from hex file
  0000h: 80 67 30 30 30 30 30 30 7e 30 30 30 7e 30 30 30   .g000000~000~000
  0010h: 30 30 30 30 30 30 30 30 7e 30 30 30 7d 17 3c 7e   00000000~000}.<~
  0020h: 7d 0a 73 7e 7e 30 30 30 7e 30 30 30 7d 17 53 7e   }.s~~000~000}.S~
  0030h: 30 30 30 30 30 30 30 30 30 30 30 30 30 30 30 30   0000000000000000
  0040h: 7e 30 30 30 7e 30 30 30 7e 30 30 30 7e 30 30 30   ~000~000~000~000
  0050h: 7e 30 30 30 7e 30 30 30 7e 30 30 30 7e 30 30 30   ~000~000~000~000
  0060h: 7e 30 30 30 7d 17 b8 7e 71 10 62 fa 00 62 e3 08   ~000}..~q.b..b..
  0070h: 70 ef 50 20 28 41 fe fb 50 80 4e 5d d0 08 62 d0   p.P (A..P.N]..b.
  0080h: 00 55 fa 01 4f 5b 01 03 53 f9 55 f8 3a 50 06 00   .U..O[..S.U.:P..
  0090h: 71 10 51 f9 60 e8 51 f8 60 ea 70 ef 18 60 d0 5d   q.Q.`.Q.`.p..`.]
  00a0h: d0 08 62 d0 00 55 fa 02 4f 5b 01 03 53 f9 55 f8   ..b..U..O[..S.U.
  00b0h: 3a 50 06 00 71 10 51 fa a0 03 60 ef 70 ef 18 60   :P..q.Q...`.p..`
  00c0h: d0 55 f8 00 55 f9 00 71 10 62 e0 02 70 ef 62 e3   .U..U..q.b..p.b.
  00d0h: 38 62 d1 03 50 00 4e 62 d3 03 62 d0 00 62 d5 00   8b..P.Nb..b..b..
  00e0h: 62 d4 00 71 c0 62 71 05 62 75 05 7c 05 0c 71 10   b..q.bq.bu.|..q.
  00f0h: 41 e7 3f 43 e7 80 70 ef 62 d0 00 50 02 57 c4 08   A.?C..p.b..P.W..
  0100h: 28 53 ed 18 75 09 00 28 4b 51 ed 80 04 75 09 00   (S..u..(KQ...u..
  0110h: 62 e3 00 08 28 60 d5 74 a0 4b 18 75 09 00 08 28   b...(`.t.K.u...(
  0120h: 53 ed 18 75 09 00 08 28 a0 1c 53 ec 18 75 09 00   S..u...(..S..u..
  0130h: 08 28 3f ed 47 ed ff b0 06 5d d5 74 60 d5 18 7a   .(?.G....].t`..z
  0140h: ec bf eb 8f c9 18 75 09 00 08 28 53 ec 50 00 3f   ......u...(S.P.?
  0150h: ed 47 ed ff b0 08 5d d5 74 60 d5 50 00 7a ec bf   .G....].t`.P.z..
  0160h: ef 18 8f aa 18 71 10 43 e3 00 70 ef 62 e0 00 71   .....q.C..p.b..q
  0170h: 10 62 e0 00 70 ef 62 e2 00 7c 2b 1d 8f ff 50 08   .b..p.b..|+...P.
  0180h: 7f 30 30 30 30 30 30 30 30 30 30 30 30 30 30 30   .000000000000000
  0190h: 30 30 30 30 30 30 30 30 30 30 30 30 30 30 30 30   0000000000000000
  01a0h: 02 14 15 02 15 13 17 03 14 16 04 13 03 14 16 04   ................
  01b0h: 13 16 03 14 16 04 13 17 05 14 16 13 16 14 16 13   ................
  01c0h: 16 14 16 13 16 06 17 05 14 16 13 16 14 16 13 18   ................
  01d0h: 06 03 16 04 12 16 13 1b 11 17 05 12 16 06 13 16   ................
  01e0h: 05 12 16 06 13 16 05 12 16 06 13 16 05 12 16 06   ................
  01f0h: 13 18 11 17 05 12 19 13 16 12 19 06 13 16 12 19   ................
  0200h: 13 16 12 19 13 00 12 16 01 13 15 00 12 16 01 13   ................
  0210h: 15 00 12 16 01 13 12 15 13 15 12 15 13 15 12 15   ................
  0220h: 13 15 12 15 13 15 12 15 13 15 12 15 13 15 12 15   ................
  0230h: 13 15 03 19 04 05 19 06 00 19 01 31 32 33 34 35   ...........12345
  0240h: 36 37 38 39 30 12 13 05 06 00 01 03 04 07 08 09   67890...........
  0250h: 0a 0b 0c 0d 0e 0f 10 36 30 71 34 c3 74 33 56 77   .......60q4.t3Vw
  0260h: 31 e9 7b 30 7c 7f 2f 0f 82 2d a2 86 2c 35 8b 2a   1.{0|./..-..,5.*
  0270h: c8 8f 29 5b 94 27 ee 9a 26 81 9f 25 14 a5 23 a7   ..)[.'..&..%..#.
  0280h: ac 22 39 b3 20 cc ba 1f 5f ba 1d f2 ba 00 00 ba   ."9. ..._.......
  0290h: 00 50 00 fa 00 00 50 00 fa 01 39 38 39 38 00 00   .P....P...9898..
  02a0h: 00 00 00 31 32 33 34 00 00 00 00 00 31 32 33 34   ...1234.....1234
  02b0h: 35 36 00 00 00 32 30 31 30 2f 30 36 2f 30 34 2e   56...2010/06/04.
  02c0h: 30 30 31 00 2e 90 23 73 23 7a 23 81 23 88 23 8f   001...#s#z#.#.#.
  02d0h: 23 96 23 9d 23 a4 23 ab 23 b2 23 b9 23 c0 23 c7   #.#.#.#.#.#.#.#.
  02e0h: 23 ce 23 d5 23 dc 23 e3 23 ea 23 f0 24 0e 23 f7   #.#.#.#.#.#.$.#.
  02f0h: 24 15 24 2d 24 45 24 5d 24 75 24 8d 24 a5 24 bd   $.$-$E$]$u$.$.$.
  0300h: 70 ef 62 60 01 62 66 00 62 61 00 62 63 10 62 65   p.b`.bf.ba.bc.be
  0310h: 00 62 e6 00 62 e7 42 62 56 00 62 57 00 62 58 00   .b..b.BbV.bW.bX.
  0320h: 62 59 00 62 5a 00 62 5b 00 62 5c 00 62 5d 00 62   bY.bZ.b[.b\.b].b
  0330h: 5e 00 62 5f 00 62 4f 00 62 4e 00 62 51 00 62 50   ^.b_.bO.bN.bQ.bP
  0340h: 00 62 53 00 62 52 00 62 55 00 62 54 00 62 d6 00   .bS.bR.bU.bT.b..
  0350h: 62 b0 00 62 b1 00 62 b2 00 62 b3 33 62 b4 33 62   b..b..b..b.3b.3b
  0360h: b5 48 62 b6 08 62 4a 00 62 4b 00 62 4c 00 62 80   .Hb..bJ.bK.bL.b.
  0370h: 88 62 81 00 62 82 20 62 83 f0 62 90 90 62 91 00   .b..b. b..b..b..
  0380h: 62 92 60 62 93 f0 62 23 00 62 21 00 62 22 01 62   b.`b..b#.b!.b".b
  0390h: 71 fe 62 72 21 62 73 20 62 70 00 62 27 00 62 25   q.br!bs bp.b'.b%
  03a0h: 7d 62 26 28 62 2b 00 62 29 b8 62 2a 00 62 2f 04   }b&(b+.b).b*.b/.
  03b0h: 62 2d 0b 62 2e 00 71 10 62 61 00 62 69 00 62 60   b-.b..q.ba.bi.b`
  03c0h: 00 62 62 00 62 67 33 62 68 00 62 63 00 62 66 00   .bb.bg3bh.bc.bf.
  03d0h: 62 64 00 62 64 00 62 fd 80 62 c4 00 62 c5 00 62   bd.bd.b..b..b..b
  03e0h: c6 00 62 c7 00 62 d1 00 62 d3 00 62 d0 00 62 d2   ..b..b..b..b..b.
  03f0h: 00 62 e1 7f 62 e2 00 62 df ff 62 de 02 62 dd 00   .b..b..b..b..b..
  0400h: 62 d8 00 62 d9 00 62 da 00 62 db 00 62 ec 00 62   b..b..b..b..b..b
  0410h: ed 00 62 e7 48 62 c1 00 62 20 31 62 21 15 62 22   ..b.Hb..b 1b!.b"
  0420h: 40 62 24 21 62 25 15 62 26 45 62 28 00 62 29 05   @b$!b%.b&Eb(.b).
  0430h: 62 2a 40 62 2c 20 62 2d 35 62 2e 40 70 ef 71 10   b*@b, b-5b.@p.q.
  0440h: 62 00 00 62 01 ff 70 ef 62 03 ff 62 02 00 71 10   b..b..p.b..b..q.
  0450h: 62 02 00 62 03 00 70 ef 62 01 00 71 10 62 04 3c   b..b..p.b..q.b.<
  0460h: 62 05 c0 70 ef 62 07 c0 62 06 00 71 10 62 06 00   b..p.b..b..q.b..
  0470h: 62 07 00 70 ef 62 05 00 71 10 62 08 03 62 09 fc   b..p.b..q.b..b..
  0480h: 70 ef 62 0b fc 62 0a 00 71 10 62 0a 00 62 0b 00   p.b..b..q.b..b..
  0490h: 70 ef 62 09 00 71 10 62 0c bf 62 0d 00 70 ef 62   p.b..q.b..b..p.b
  04a0h: 0f 00 62 0e 00 71 10 62 0e 00 62 0f 03 70 ef 62   ..b..q.b..b..p.b
  04b0h: 0d 03 71 10 62 10 00 62 11 10 70 ef 62 13 10 62   ..q.b..b..p.b..b
  04c0h: 12 00 71 10 62 12 00 62 13 0f 70 ef 62 11 0f 71   ..q.b..b..p.b..q
  04d0h: 10 62 14 5e 62 15 a1 70 ef 62 17 a1 62 16 00 71   .b.^b..p.b..b..q
  04e0h: 10 62 16 00 62 17 00 70 ef 62 15 00 71 10 62 1c   .b..b..p.b..q.b.
  04f0h: 00 62 1d 81 70 ef 62 1f 81 62 1e 00 71 10 62 1e   .b..p.b..b..q.b.
  0500h: 00 62 1f 00 70 ef 62 1d 00 70 ef 7f 55 00 00 55   .b..p.b..p..U..U
  0510h: 01 00 55 02 00 55 03 00 7c 05 1c 7f 7c 03 00 70   ..U..U..|...|..p
  0520h: ef 7f 50 01 80 03 50 00 62 d0 00 29 00 a0 06 2e   ..P...P.b..)....
  0530h: 00 20 80 04 26 00 df 51 00 60 04 70 3f 71 c0 7f   . ..&..Q.`.p?q..
  0540h: 62 d0 00 36 00 20 51 00 60 04 70 3f 71 c0 7f 62   b..6. Q.`.p?q..b
  0550h: d0 00 51 00 21 20 a0 03 50 01 70 3f 71 c0 7f 43   ..Q.! ..P.p?q..C
  0560h: e1 08 7f 41 e1 f7 7f 43 2b 01 7f 41 2b fe 7f 60   ...A...C+..A+..`
  0570h: 29 5b 60 2d 7f 60 2a 5b 60 2e 7f 5d 2e 5c 5d 2a   )[`-.`*[`..].\]*
  0580h: 7f 4f 38 03 5d 2b 08 5d 2a 08 5d 2e 08 5d 28 5d   .O8.]+.]*.]..](]
  0590h: 2e 54 01 5d 2a 54 02 50 00 49 f7 01 a0 03 50 01   .T.]*T.P.I....P.
  05a0h: 54 00 70 fe 41 2b fe 18 60 2e 18 60 2a 18 60 2b   T.p.A+..`..`*.`+
  05b0h: 18 20 70 3f 71 c0 7e 5d 28 5d 2e 5c 5d 2a 7f 50   . p?q.~](].\]*.P
  05c0h: 01 80 03 50 00 62 d0 00 29 00 a0 06 2e 02 08 80   ...P.b..).......
  05d0h: 04 26 02 f7 51 02 60 0c 70 3f 71 c0 7f 62 d0 00   .&..Q.`.p?q..b..
  05e0h: 36 02 08 51 02 60 0c 70 3f 71 c0 7f 62 d0 00 51   6..Q.`.p?q..b..Q
  05f0h: 02 21 08 a0 03 50 01 70 3f 71 c0 7f 43 e1 02 7f   .!...P.p?q..C...
  0600h: 41 e1 fd 7f 43 27 01 7f 41 27 fe 7f 60 25 7f 60   A...C'..A'..`%.`
  0610h: 26 7f 5d 26 7f 4f 5d 26 08 41 27 fe 71 10 5d 25   &.]&.O]&.A'.q.]%
  0620h: 08 62 25 00 70 ef 5d 24 5d 26 08 52 00 60 26 71   .b%.p.]$]&.R.`&q
  0630h: 10 52 01 60 25 70 ef 43 27 01 18 38 fe 70 3f 71   .R.`%p.C'..8.p?q
  0640h: c0 7f 21 03 4f 08 5d 73 21 fc 2b 00 60 73 18 70   ..!.O.]s!.+.`s.p
  0650h: 3f 71 c0 7f 21 fc 4f 08 5d 71 21 07 48 00 04 b0   ?q..!.O.]q!.H...
  0660h: 0e 41 70 fe 2b 00 60 71 18 70 3f 71 c0 7f 27 00   .Ap.+.`q.p?q..'.
  0670h: 18 2b 00 60 71 43 70 01 18 70 3f 71 c0 7f 41 73   .+.`qCp..p?q..As
  0680h: fc 7f 50 01 80 03 50 00 62 d0 00 29 00 a0 06 2e   ..P...P.b..)....
  0690h: 03 10 80 04 26 03 ef 51 03 60 14 70 3f 71 c0 7f   ....&..Q.`.p?q..
  06a0h: 62 d0 00 36 03 10 51 03 60 14 70 3f 71 c0 7f 62   b..6..Q.`.p?q..b
  06b0h: d0 00 51 03 21 10 a0 03 50 01 70 3f 71 c0 7f 50   ..Q.!...P.p?q..P
  06c0h: 01 80 03 50 00 62 d0 00 29 00 a0 06 2e 03 08 80   ...P.b..).......
  06d0h: 04 26 03 f7 51 03 60 14 70 3f 71 c0 7f 62 d0 00   .&..Q.`.p?q..b..
  06e0h: 36 03 08 51 03 60 14 70 3f 71 c0 7f 62 d0 00 51   6..Q.`.p?q..b..Q
  06f0h: 03 21 08 a0 03 50 01 70 3f 71 c0 7f 50 01 80 03   .!...P.p?q..P...
  0700h: 50 00 62 d0 00 29 00 a0 06 2e 03 02 80 04 26 03   P.b..)........&.
  0710h: fd 51 03 60 14 70 3f 71 c0 7f 62 d0 00 36 03 02   .Q.`.p?q..b..6..
  0720h: 51 03 60 14 70 3f 71 c0 7f 62 d0 00 51 03 21 02   Q.`.p?q..b..Q.!.
  0730h: a0 03 50 01 70 3f 71 c0 7f 50 01 80 03 50 00 62   ..P.p?q..P...P.b
  0740h: d0 00 29 00 a0 06 2e 03 04 80 04 26 03 fb 51 03   ..)........&..Q.
  0750h: 60 14 70 3f 71 c0 7f 62 d0 00 36 03 04 51 03 60   `.p?q..b..6..Q.`
  0760h: 14 70 3f 71 c0 7f 62 d0 00 51 03 21 04 a0 03 50   .p?q..b..Q.!...P
  0770h: 01 70 3f 71 c0 7f 50 01 80 03 50 00 62 d0 00 29   .p?q..P...P.b..)
  0780h: 00 a0 06 2e 02 02 80 04 26 02 fd 51 02 60 0c 70   ........&..Q.`.p
  0790h: 3f 71 c0 7f 62 d0 00 36 02 02 51 02 60 0c 70 3f   ?q..b..6..Q.`.p?
  07a0h: 71 c0 7f 62 d0 00 51 02 21 02 a0 03 50 01 70 3f   q..b..Q.!...P.p?
  07b0h: 71 c0 7f 50 01 80 03 50 00 62 d0 00 29 00 a0 06   q..P...P.b..)...
  07c0h: 2e 02 01 80 04 26 02 fe 51 02 60 0c 70 3f 71 c0   .....&..Q.`.p?q.
  07d0h: 7f 62 d0 00 36 02 01 51 02 60 0c 70 3f 71 c0 7f   .b..6..Q.`.p?q..
  07e0h: 62 d0 00 51 02 21 01 a0 03 50 01 70 3f 71 c0 7f   b..Q.!...P.p?q..
  07f0h: 50 01 80 03 50 00 62 d0 00 29 00 a0 06 26 00 fb   P...P.b..)...&..
  0800h: 80 04 2e 00 04 51 00 60 04 70 3f 71 c0 7f 62 d0   .....Q.`.p?q..b.
  0810h: 00 36 00 04 51 00 60 04 70 3f 71 c0 7f 62 d0 00   .6..Q.`.p?q..b..
  0820h: 51 00 73 21 04 a0 03 50 01 70 3f 71 c0 7f 50 01   Q.s!...P.p?q..P.
  0830h: 80 03 50 00 62 d0 00 29 00 a0 06 26 00 ef 80 04   ..P.b..)...&....
  0840h: 2e 00 10 51 00 60 04 70 3f 71 c0 7f 62 d0 00 36   ...Q.`.p?q..b..6
  0850h: 00 10 51 00 60 04 70 3f 71 c0 7f 62 d0 00 51 00   ..Q.`.p?q..b..Q.
  0860h: 73 21 10 a0 03 50 01 70 3f 71 c0 7f 50 01 80 03   s!...P.p?q..P...
  0870h: 50 00 62 d0 00 29 00 a0 06 26 00 f7 80 04 2e 00   P.b..)...&......
  0880h: 08 51 00 60 04 70 3f 71 c0 7f 62 d0 00 36 00 08   .Q.`.p?q..b..6..
  0890h: 51 00 60 04 70 3f 71 c0 7f 62 d0 00 51 00 73 21   Q.`.p?q..b..Q.s!
  08a0h: 08 a0 03 50 01 70 3f 71 c0 7f 7f 7f 5d f7 08 50   ...P.p?q....]..P
  08b0h: 00 08 50 fa 08 7d 0b b3 5d f7 08 50 00 5c 50 fa   ..P..}..]..P.\P.
  08c0h: 7d 0d 46 50 01 80 03 50 00 62 d0 00 29 00 a0 06   }.FP...P.b..)...
  08d0h: 2e 02 04 80 04 26 02 fb 51 02 60 0c 70 3f 71 c0   .....&..Q.`.p?q.
  08e0h: 7f 62 d0 00 36 02 04 51 02 60 0c 70 3f 71 c0 7f   .b..6..Q.`.p?q..
  08f0h: 62 d0 00 51 02 21 04 a0 03 50 01 70 3f 71 c0 7f   b..Q.!...P.p?q..
  0900h: 50 01 80 03 50 00 62 d0 00 29 00 a0 06 2e 03 40   P...P.b..).....@
  0910h: 80 04 26 03 bf 51 03 60 14 70 3f 71 c0 7f 62 d0   ..&..Q.`.p?q..b.
  0920h: 00 36 03 40 51 03 60 14 70 3f 71 c0 7f 62 d0 00   .6.@Q.`.p?q..b..
  0930h: 51 03 21 40 a0 03 50 01 70 3f 71 c0 7f 50 01 80   Q.!@..P.p?q..P..
  0940h: 03 50 00 62 d0 00 29 00 a0 06 26 01 fd 80 04 2e   .P.b..)...&.....
  0950h: 01 02 51 01 60 08 70 3f 71 c0 7f 62 d0 00 36 01   ..Q.`.p?q..b..6.
  0960h: 02 51 01 60 08 70 3f 71 c0 7f 62 d0 00 51 01 73   .Q.`.p?q..b..Q.s
  0970h: 21 02 a0 03 50 01 70 3f 71 c0 7f 50 01 80 03 50   !...P.p?q..P...P
  0980h: 00 62 d0 00 29 00 a0 06 26 01 fe 80 04 2e 01 01   .b..)...&.......
  0990h: 51 01 60 08 70 3f 71 c0 7f 62 d0 00 36 01 01 51   Q.`.p?q..b..6..Q
  09a0h: 01 60 08 70 3f 71 c0 7f 62 d0 00 51 01 73 21 01   .`.p?q..b..Q.s!.
  09b0h: a0 03 50 01 70 3f 71 c0 7f 50 01 80 03 50 00 62   ..P.p?q..P...P.b
  09c0h: d0 00 29 00 a0 06 26 02 ef 80 04 2e 02 10 51 02   ..)...&.......Q.
  09d0h: 60 0c 70 3f 71 c0 7f 62 d0 00 36 02 10 51 02 60   `.p?q..b..6..Q.`
  09e0h: 0c 70 3f 71 c0 7f 62 d0 00 51 02 73 21 10 a0 03   .p?q..b..Q.s!...
  09f0h: 50 01 70 3f 71 c0 7f 50 01 80 03 50 00 62 d0 00   P.p?q..P...P.b..
  0a00h: 29 00 a0 06 26 02 df 80 04 2e 02 20 51 02 60 0c   )...&...... Q.`.
  0a10h: 70 3f 71 c0 7f 62 d0 00 36 02 20 51 02 60 0c 70   p?q..b..6. Q.`.p
  0a20h: 3f 71 c0 7f 62 d0 00 51 02 73 21 20 a0 03 50 01   ?q..b..Q.s! ..P.
  0a30h: 70 3f 71 c0 7f 50 01 80 03 50 00 62 d0 00 29 00   p?q..P...P.b..).
  0a40h: a0 06 26 02 7f 80 04 2e 02 80 51 02 60 0c 70 3f   ..&.......Q.`.p?
  0a50h: 71 c0 7f 62 d0 00 36 02 80 51 02 60 0c 70 3f 71   q..b..6..Q.`.p?q
  0a60h: c0 7f 62 d0 00 51 02 73 21 80 a0 03 50 01 70 3f   ..b..Q.s!...P.p?
  0a70h: 71 c0 7f 7a 09 c0 02 7e 3c 0a 00 b0 12 08 5d e5   q..z...~<.....].
  0a80h: 53 07 5d e4 53 06 18 55 0a 01 55 09 ff 7e 43 82   S.].S..U..U..~C.
  0a90h: 20 43 83 10 43 92 20 43 93 10 08 5d e5 12 07 53    C..C. C...]...S
  0aa0h: 07 5d e4 1a 06 39 40 b0 05 78 55 07 ff 5f 05 07   .]...9@..xU.._..
  0ab0h: 53 04 55 08 01 18 3c 0b 00 b0 14 55 0a 00 55 09   S.U...<....U..U.
  0ac0h: 00 41 83 ef 41 82 df 41 93 ef 41 92 df 7e 7a 0b   .A..A..A..A..~z.
  0ad0h: a0 14 55 0a 00 55 09 00 41 83 ef 41 82 df 41 93   ..U..U..A..A..A.
  0ae0h: ef 41 92 df 7e 71 10 41 e7 3f 43 e7 80 70 ef 41   .A..~q.A.?C..p.A
  0af0h: e1 fe 7e 90 13 43 82 20 43 83 10 43 92 20 43 93   ..~..C. C..C. C.
  0b00h: 10 62 21 ff 43 23 01 7f 21 03 08 08 4f 5d 83 21   .b!.C#..!...O].!
  0b10h: fc 2d fe 5d 93 21 fc 2d ff 18 60 93 18 60 83 70   .-.].!.-..`..`.p
  0b20h: 3f 71 c0 7f 41 e1 fe 41 83 fc 41 93 fc 41 23 fe   ?q..A..A..A..A#.
  0b30h: 7f 62 d0 00 41 83 ef 41 82 df 41 93 ef 41 92 df   .b..A..A..A..A..
  0b40h: 55 0a 00 55 09 00 53 0b 5d 22 b0 04 62 22 01 71   U..U..S.]"..b".q
  0b50h: 10 41 e7 3f 43 e7 40 70 ef 62 db fe 43 e1 01 7f   .A.?C.@p.b..C...
  0b60h: 71 10 41 e7 3f 43 e7 80 70 ef 41 e1 fe 43 82 20   q.A.?C..p.A..C. 
  0b70h: 43 83 10 43 92 20 43 93 10 7f 62 d0 00 51 08 7f   C..C. C...b..Q..
  0b80h: 62 d0 00 55 08 00 58 04 51 05 3c 08 00 bf f5 7f   b..U..X.Q.<.....
  0b90h: 62 d0 00 55 08 00 51 05 7f 62 d0 00 58 04 51 05   b..U..Q..b..X.Q.
  0ba0h: 7f 62 d0 00 51 05 7f 62 d0 00 51 08 55 08 00 7f   .b..Q..b..Q.U...
  0bb0h: 60 22 7f 4f 4b 39 ea c0 06 50 fe 38 fe 7e 4f 79   `".OK9...P.8.~Oy
  0bc0h: 79 38 09 56 08 00 52 fb 08 52 fc 08 69 fb 6f fc   y8.V..R..R..i.o.
  0bd0h: 69 fb 6f fc 69 fb 6f fc 69 fb 6f fc 69 fb 6f fc   i.o.i.o.i.o.i.o.
  0be0h: 69 fb 6f fc 52 fc 05 01 52 fb 0d 00 18 54 fc 18   i.o.R...R....T..
  0bf0h: 54 fb 52 fa 54 03 52 f9 54 02 52 f6 54 04 52 fc   T.R.T.R.T.R.T.R.
  0c00h: 21 3f 54 09 50 40 13 09 54 0a 52 f7 b0 09 52 f8   !?T.P@..T.R...R.
  0c10h: 3b 0a d0 03 54 0a 3d 0a 40 b0 1c 56 08 ff 10 5b   ;...T.=.@..V...[
  0c20h: 01 00 5c 5d d1 70 3f 71 c0 7c 0d ac 20 39 00 a0   ..\].p?q.|.. 9..
  0c30h: 4d 56 08 00 80 1d 52 03 54 fa 52 02 54 f9 90 46   MV....R.T.R.T..F
  0c40h: 52 08 39 ff a0 38 39 fe a0 34 52 fa 54 03 52 f9   R.9..89..4R.T.R.
  0c50h: 54 02 52 f8 13 0a 54 f8 d0 03 7b f7 52 f8 2b f7   T.R...T...{.R.+.
  0c60h: a0 1c 77 01 0f 00 00 52 03 03 0a 54 03 d0 03 77   ..w....R...T...w
  0c70h: 02 52 fc 03 0a 54 fc df 86 77 fb 8f 82 52 08 38   .R...T...w...R.8
  0c80h: f5 70 3f 71 c0 7e 5b 4f 4b 39 a0 c0 05 56 08 fe   .p?q.~[OK9...V..
  0c90h: 7f 38 44 52 09 03 0a 54 0d 52 09 a0 22 10 50 00   .8DR...T.R..".P.
  0ca0h: 08 52 09 08 5d d1 08 5b 01 0e 08 50 00 08 08 52   .R..]..[...P...R
  0cb0h: 00 08 52 01 20 70 3f 71 c0 90 84 38 fa 20 3d 0d   ..R. p?q...8. =.
  0cc0h: 40 d0 28 10 50 00 08 50 40 13 0d 08 5d d1 08 5b   @.(.P..P@...]..[
  0cd0h: 01 0e 0b 0d 08 50 00 08 52 0d 08 52 00 08 52 01   .....P..R..R..R.
  0ce0h: 20 70 3f 71 c0 90 58 38 fa 20 5b 03 09 01 0e 53    p?q..X8. [....S
  0cf0h: fc 5d d1 60 d5 52 03 53 fa 52 02 60 d4 52 0d 13   .].`.R.S.R.`.R..
  0d00h: 09 53 ff 3e fa 3f fc 51 fa b0 06 5d d4 74 60 d4   .S.>.?.Q...].t`.
  0d10h: 7a ff bf f0 52 03 08 5b 01 0e 54 03 5d d1 54 02   z...R..[..T.].T.
  0d20h: 56 08 ff 10 5b 01 00 5c 5d d1 70 3f 71 c0 7c 0d   V...[..\].p?q.|.
  0d30h: ac 20 39 00 a0 04 56 08 00 18 54 03 38 bc 7f 53   . 9...V...T.8..S
  0d40h: f8 5d f7 08 51 f8 08 10 62 d0 00 20 18 5a f8 64   .]..Q...b.. .Z.d
  0d50h: 6b f8 64 6b f8 64 6b f8 64 6b f8 64 6b f8 64 6b   k.dk.dk.dk.dk.dk
  0d60h: f8 21 c0 53 f9 4f 52 f7 2b f8 a0 3b 52 f7 53 fe   .!.S.OR.+..;R.S.
  0d70h: 52 f8 53 ff 76 fe 52 fa 53 fd 52 f9 60 d5 51 f9   R.S.v.R.S.R.`.Q.
  0d80h: 05 fc 51 f8 0d fb 52 fb 59 fc 08 28 3f fd 18 75   ..Q...R.Y..(?..u
  0d90h: b0 02 74 08 51 fd b0 06 5d d5 74 60 d5 18 7a ff   ..t.Q...].t`..z.
  0da0h: bf e9 7a fe bf e5 70 3f 71 c0 7e 30 62 d0 00 53   ..z...p?q.~0b..S
  0db0h: f8 5d f7 08 21 c0 b0 07 56 02 00 55 f8 00 51 f8   .]..!...V..U..Q.
  0dc0h: 70 bf 60 d3 55 fd 01 3c fd 01 b0 c5 71 10 5d e0   p.`.U..<....q.].
  0dd0h: 08 21 f8 49 fe 10 a0 05 29 03 80 03 29 02 60 e0   .!.I....)...).`.
  0de0h: 70 ef 65 fd 3c fd 02 b0 a8 90 b9 39 00 a0 09 55   p.e.<......9...U
  0df0h: ff 00 55 fd 10 80 85 65 fd 52 01 6a 52 00 6a 71   ..U....e.R.jR.jq
  0e00h: 10 60 fa 70 ef 08 52 01 21 7f 53 fa 08 52 05 53   .`.p..R.!.S..R.S
  0e10h: fc 55 fe 56 51 fd 39 04 b0 77 08 10 4f 5b 01 03   .U.VQ.9..w..O[..
  0e20h: 53 f9 55 f8 3a 50 03 00 20 18 53 fd 3c f8 00 a0   S.U.:P.. .S.<...
  0e30h: 0b 55 ff 00 55 fd 10 38 fe 80 41 65 fd 18 53 fa   .U..U..8..Ae..S.
  0e40h: 18 71 10 60 fa 70 ef 52 03 53 fb 52 02 60 d4 52   .q.`.p.R.S.R.`.R
  0e50h: 06 53 fc 55 fe 56 51 fd 39 08 b0 35 08 10 4f 5b   .S.U.VQ.9..5..O[
  0e60h: 01 03 53 f9 55 f8 3a 50 02 00 20 18 53 fd 55 ff   ..S.U.:P.. .S.U.
  0e70h: 01 3c f8 00 a0 04 55 ff 00 65 fd 3c fd 10 b0 11   .<....U..e.<....
  0e80h: 18 71 10 60 e0 70 ef 65 fd 51 ff 3c fd 20 a0 04   .q.`.p.e.Q.<. ..
  0e90h: 30 8f fe 70 3f 71 c0 62 d0 00 62 d5 00 62 d4 00   0..p?q.b..b..b..
  0ea0h: 7e 30 30 30 55 fa 03 62 d5 00 71 10 62 fa 00 70   ~000U..b..q.b..p
  0eb0h: ef 51 fd 39 02 bf da 08 10 4f 5b 01 03 53 f9 55   .Q.9.....O[..S.U
  0ec0h: f8 3a 50 06 00 20 3c ff 01 b0 75 10 5d d3 08 52   .:P.. <...u.]..R
  0ed0h: 04 60 e8 21 80 b0 09 51 fd 54 07 57 fb 80 07 51   .`.!...Q.T.W...Q
  0ee0h: fa 54 07 57 f8 62 d3 00 52 00 60 e9 5d eb 64 5d   .T.W.b..R.`.].d]
  0ef0h: ea 6a 73 74 03 01 53 fe 21 7f 60 e8 52 02 67 21   .jst..S.!.`.R.g!
  0f00h: 7f 60 e9 5d ea 53 ff 5d eb 64 6b ff 48 02 01 a0   .`.].S.].dk.H...
  0f10h: 06 02 fe 0e ff 00 64 6b ff 64 6b ff 18 60 d3 51   ......dk.dk..`.Q
  0f20h: ff 20 54 06 51 fe 54 05 49 fe 10 a0 09 69 06 77   . T.Q.T.I....i.w
  0f30h: 06 69 05 77 05 18 39 02 bf 57 53 fd 50 00 7f 18   .i.w..9..WS.P...
  0f40h: 39 02 bf 4d 53 fd 50 01 7f 62 d0 00 53 f8 5d f7   9..MS.P..b..S.].
  0f50h: 08 21 c0 b0 07 56 02 00 55 f8 00 51 f8 70 bf 60   .!...V..U..Q.p.`
  0f60h: d3 52 03 53 fb 52 02 60 d5 52 04 74 53 fd 52 05   .R.S.R.`.R.tS.R.
  0f70h: 53 fe 52 01 64 6c 00 64 6c 00 64 6c 00 64 6c 00   S.R.dl.dl.dl.dl.
  0f80h: 64 6c 00 64 6c 00 08 52 00 20 08 28 3f fb 18 75   dl.dl..R. .(?..u
  0f90h: b0 02 74 7a fe b0 05 7a fd a0 0f 3c fb 00 bf eb   ..tz...z...<....
  0fa0h: 08 5d d5 74 60 d5 18 8f e2 70 3f 71 c0 62 d0 00   .].t`....p?q.b..
  0fb0h: 62 d5 00 7e 10 4f 38 04 52 fc 54 01 52 fb 54 00   b..~.O8.R.T.R.T.
  0fc0h: 52 fa 54 03 52 f9 54 02 80 3d 62 d0 00 52 01 53   R.T.R.T..=b..R.S
  0fd0h: ec 52 00 53 ed 51 ec 01 01 54 01 51 ed 09 00 54   .R.S.Q...T.Q...T
  0fe0h: 00 52 03 53 ea 52 02 53 eb 51 ea 01 01 54 03 51   .R.S.R.S.Q...T.Q
  0ff0h: eb 09 00 54 02 51 eb 10 58 ea 28 20 53 eb 51 ed   ...T.Q..X.( S.Q.
  1000h: 60 d5 51 eb 3f ec 62 d0 00 52 f8 53 ec 52 f7 53   `.Q.?.b..R.S.R.S
  1010h: ed 51 ec 11 01 54 f8 51 ed 19 00 54 f7 3c ed 00   .Q...T.Q...T.<..
  1020h: bf a9 3c ec 00 bf a4 62 d0 00 52 fc 53 ec 52 fb   ..<....b..R.S.R.
  1030h: 53 ed 38 fc 20 7f 10 50 00 08 50 0a 08 50 00 08   S.8. ..P..P..P..
  1040h: 50 ee 08 50 01 08 50 00 08 7c 08 b8 38 fa 20 7f   P..P..P..|..8. .
  1050h: 10 50 19 08 50 00 08 50 0a 08 50 00 08 50 ee 08   .P..P..P..P..P..
  1060h: 50 01 08 50 00 08 7c 08 ac 62 d0 00 38 f9 20 7f   P..P..|..b..8. .
  1070h: 10 4f 38 1c 10 50 00 08 50 1c 08 62 d0 00 50 03   .O8..P..P..b..P.
  1080h: 08 10 50 01 08 50 40 08 7c 08 b8 38 fa 20 50 00   ..P..P@.|..8. P.
  1090h: 08 50 08 08 62 d0 00 5a ec 06 ec 04 50 03 08 51   .P..b..Z....P..Q
  10a0h: ec 08 50 00 08 50 ee 08 7c 2d 63 38 fa 62 d0 00   ..P..P..|-c8.b..
  10b0h: 55 f6 01 55 f7 01 9f 98 38 e4 20 7f 10 4f 38 1c   U..U....8. ..O8.
  10c0h: 92 95 10 50 00 08 50 1c 08 62 d0 00 50 03 08 10   ...P..P..b..P...
  10d0h: 50 01 08 50 40 08 7c 08 b8 38 fa 20 62 d0 00 5a   P..P@.|..8. b..Z
  10e0h: ec 06 ec 0c 50 03 08 51 ec 08 50 00 08 92 00 62   ....P..Q..P....b
  10f0h: d0 00 5a ec 06 ec 14 50 03 08 51 ec 08 50 01 08   ..Z....P..Q..P..
  1100h: 91 ed 38 fa 38 e4 20 7f 10 4f 38 1c 10 50 00 08   ..8.8. ..O8..P..
  1110h: 50 1c 08 62 d0 00 50 03 08 10 50 01 08 50 40 08   P..b..P...P..P@.
  1120h: 7c 08 b8 38 fa 20 3d 00 ca b0 10 3d 01 fe b0 0b   |..8. =....=....
  1130h: 3d 02 ba b0 06 3d 03 be a0 89 56 00 ca 56 01 fe   =....=....V..V..
  1140h: 56 02 ba 56 03 be 50 00 08 50 08 08 50 02 08 50   V..V..P..P..P..P
  1150h: ac 08 62 d0 00 5a ec 06 ec 04 50 03 08 51 ec 08   ..b..Z....P..Q..
  1160h: 9e 52 38 fa 50 00 08 50 08 08 50 02 08 50 a3 08   .R8.P..P..P..P..
  1170h: 62 d0 00 5a ec 06 ec 0c 50 03 08 51 ec 08 9e 34   b..Z....P..Q...4
  1180h: 50 00 08 50 08 08 50 02 08 50 9a 08 62 d0 00 5a   P..P..P..P..b..Z
  1190h: ec 06 ec 14 50 03 08 51 ec 08 9e 18 38 f4 10 50   ....P..Q....8..P
  11a0h: 19 08 50 00 08 50 1c 08 62 d0 00 50 03 08 10 50   ..P..P..b..P...P
  11b0h: 01 08 50 40 08 7c 08 ac 62 d0 00 38 f9 20 9e b0   ..P@.|..b..8. ..
  11c0h: 9e fa 38 e4 20 7f 10 4f 38 09 56 00 00 80 6a 10   ..8. ..O8.V...j.
  11d0h: 50 00 08 50 08 08 62 d0 00 5a ec 06 ec 01 50 03   P..P..b..Z....P.
  11e0h: 08 51 ec 08 52 00 53 ec 55 ed 00 65 ec 6b ed 65   .Q..R.S.U..e.k.e
  11f0h: ec 6b ed 65 ec 6b ed 51 ed 08 51 ec 08 7c 08 b8   .k.e.k.Q..Q..|..
  1200h: 38 fa 20 50 00 08 50 08 08 52 fb 08 52 fc 08 62   8. P..P..R..R..b
  1210h: d0 00 5a ec 06 ec 01 50 03 08 51 ec 08 7c 2d bf   ..Z....P..Q..|-.
  1220h: 38 fa 62 d0 00 3c ed 00 b0 0d 3c ec 00 b0 08 52   8.b..<....<....R
  1230h: 00 62 d0 00 80 0d 77 00 3d 00 14 cf 93 62 d0 00   .b....w.=....b..
  1240h: 50 15 38 f7 20 7f 10 4f 38 0a 10 50 00 08 50 08   P.8. ..O8..P..P.
  1250h: 08 62 d0 00 50 03 08 10 50 01 08 50 00 08 7c 08   .b..P...P..P..|.
  1260h: b8 38 fa 20 50 00 08 50 08 08 52 fb 08 52 fc 08   .8. P..P..R..R..
  1270h: 62 d0 00 50 03 08 10 7c 2d bf 38 fa 62 d0 00 3c   b..P...|-.8.b..<
  1280h: ed 00 b0 0e 3c ec 00 b0 09 56 09 01 56 08 00 80   ....<....V..V...
  1290h: 07 56 09 00 56 08 00 62 d0 00 52 09 38 f6 20 7f   .V..V..b..R.8. .
  12a0h: 10 4f 10 50 19 08 50 00 08 50 08 08 52 fb 08 52   .O.P..P..P..R..R
  12b0h: fc 08 50 01 08 50 00 08 7c 08 ac 62 d0 00 38 f9   ..P..P..|..b..8.
  12c0h: 20 20 7f 10 4f 38 02 52 fb 08 52 fc 08 9e f7 38     ..O8.R..R....8
  12d0h: fe 62 d0 00 39 15 b0 09 56 01 00 56 00 00 80 07   .b..9...V..V....
  12e0h: 56 01 01 56 00 00 62 d0 00 52 01 38 fe 20 7f 10   V..V..b..R.8. ..
  12f0h: 4f 3d fc 14 d0 36 10 50 19 08 50 00 08 50 08 08   O=...6.P..P..P..
  1300h: 52 fa 08 52 fb 08 62 d0 00 52 fc 53 ec 55 ed 00   R..R..b..R.S.U..
  1310h: 65 ec 6b ed 65 ec 6b ed 65 ec 6b ed 51 ed 08 51   e.k.e.k.e.k.Q..Q
  1320h: ec 08 7c 08 ac 62 d0 00 38 f9 20 20 7f 10 4f 38   ..|..b..8.  ..O8
  1330h: 08 50 00 08 50 08 08 50 00 08 08 62 d0 00 50 03   .P..P..P...b..P.
  1340h: 08 10 7c 2d 91 62 d0 00 50 03 08 10 52 fc 08 9f   ..|-.b..P...R...
  1350h: 9e 38 f7 38 f8 20 7f 10 4f 38 01 56 00 00 80 0a   .8.8. ..O8.V....
  1360h: 52 00 08 9f c8 38 ff 77 00 3d 00 14 cf f3 38 ff   R....8.w.=....8.
  1370h: 20 7f 10 4f 38 08 50 00 08 50 08 08 50 00 08 08    ..O8.P..P..P...
  1380h: 62 d0 00 50 03 08 10 7c 2d 91 62 d0 00 50 03 08   b..P...|-.b..P..
  1390h: 10 9e 33 38 f8 62 d0 00 38 f8 20 7f 10 4f 38 02   ..38.b..8. ..O8.
  13a0h: 52 fc 54 01 56 00 00 52 01 11 28 62 d0 00 53 e0   R.T.V..R..(b..S.
  13b0h: 52 00 31 80 19 80 2a e0 a0 85 d0 17 3d 00 00 b0   R.1...*.....=...
  13c0h: 06 3d 01 22 a0 a3 3d 00 00 b0 06 3d 01 24 a0 84   .=."..=....=.$..
  13d0h: 80 ac 3d 00 00 b0 06 3d 01 41 a0 94 3d 00 00 b0   ..=....=.A..=...
  13e0h: 06 3d 01 42 a0 7c 3d 00 00 b0 06 3d 01 44 a0 5d   .=.B.|=....=.D.]
  13f0h: 3d 00 00 b0 06 3d 01 48 a0 3e 52 01 11 41 52 00   =....=.H.>R..AR.
  1400h: 31 80 19 80 c0 78 3d 00 00 b0 06 3d 01 81 a0 67   1....x=....=...g
  1410h: 3d 00 00 b0 06 3d 01 82 a0 41 3d 00 00 b0 06 3d   =....=...A=....=
  1420h: 01 84 a0 22 3d 00 00 b0 06 3d 01 88 a0 03 80 4e   ..."=....=.....N
  1430h: 62 d0 00 50 31 80 4c 62 d0 00 50 32 80 45 62 d0   b..P1.Lb..P2.Eb.
  1440h: 00 50 33 80 3e 62 d0 00 50 34 80 37 62 d0 00 50   .P3.>b..P4.7b..P
  1450h: 35 80 30 62 d0 00 50 36 80 29 62 d0 00 50 37 80   5.0b..P6.)b..P7.
  1460h: 22 62 d0 00 50 38 80 1b 62 d0 00 50 39 80 14 62   "b..P8..b..P9..b
  1470h: d0 00 50 30 80 0d 62 d0 00 50 23 80 06 62 d0 00   ..P0..b..P#..b..
  1480h: 50 00 38 fe 20 7f 71 10 41 0c fc 5d 0d 70 cf 62   P.8. .q.A..].p.b
  1490h: d0 00 53 ed 26 ed fc 2e ed 01 51 ed 71 10 60 0d   ..S.&.....Q.q.`.
  14a0h: 70 cf 5d 0f 53 ed 26 ed fc 2e ed 01 51 ed 60 0f   p.].S.&.....Q.`.
  14b0h: 7f 71 10 41 0c fc 5d 0d 70 cf 62 d0 00 53 ed 26   .q.A..].p.b..S.&
  14c0h: ed fc 2e ed 02 51 ed 71 10 60 0d 70 cf 5d 0f 53   .....Q.q.`.p.].S
  14d0h: ed 26 ed fc 2e ed 02 51 ed 60 0f 7f 71 10 41 0c   .&.....Q.`..q.A.
  14e0h: fc 41 0d fc 70 cf 41 0f fc 7f 5d 0c 62 d0 00 53   .A..p.A...].b..S
  14f0h: ed 47 ed 03 a0 0d 62 d0 00 55 d8 ff 62 d0 02 55   .G....b..U..b..U
  1500h: 07 01 7f 10 4f 38 06 62 d0 02 55 0c 00 3c 08 00   ....O8.b..U..<..
  1510h: a1 29 3c 09 00 b1 24 71 10 5d 0c 54 00 5d 0d 54   .)<...$q.].T.].T
  1520h: 01 70 cf 5d 0f 54 02 9f b3 50 00 08 50 0a 08 93   .p.].T...P..P...
  1530h: 4f 38 fe 62 d0 00 5d 0c 53 ed 26 ed 03 51 ed 54   O8.b..].S.&..Q.T
  1540h: 03 62 d0 00 51 d8 62 d0 00 3a ed a0 c8 52 03 62   .b..Q.b..:...R.b
  1550h: d0 00 53 d8 48 03 02 a0 5c 62 d0 02 3c 04 00 a0   ..S.H...\b..<...
  1560h: 06 3c 0d 00 a0 4f 62 d0 02 51 0d 54 04 9f 42 62   .<...Ob..Q.T..Bb
  1570h: d0 02 55 04 01 55 0c 01 55 0d 00 50 00 08 7c 26   ..U..U..U..P..|&
  1580h: 71 38 ff 39 00 b0 8e 62 d0 02 51 0e 54 05 55 0e   q8.9...b..Q.T.U.
  1590h: 00 7c 28 af 3d 04 00 b0 7c 3d 05 00 a0 0b 7c 25   .|(.=...|=....|%
  15a0h: 8e 62 d0 00 39 00 b0 0b 7c 25 06 62 d0 00 39 00   .b..9...|%.b..9.
  15b0h: a0 63 8f 74 48 03 01 a0 5c 62 d0 02 3c 04 00 b0   .c.tH...\b..<...
  15c0h: 06 3c 0d 00 a0 4f 62 d0 02 51 0d 54 04 9e b7 62   .<...Ob..Q.T...b
  15d0h: d0 02 55 04 00 55 0c 01 55 0d 00 50 00 08 7c 26   ..U..U..U..P..|&
  15e0h: 71 38 ff 39 00 b0 2e 62 d0 02 51 0e 54 05 55 0e   q8.9...b..Q.T.U.
  15f0h: 00 7c 28 b7 3d 04 00 b0 1c 3d 05 00 a0 0b 7c 25   .|(.=....=....|%
  1600h: 8e 62 d0 00 39 00 b0 0b 7c 25 06 62 d0 00 39 00   .b..9...|%.b..9.
  1610h: a0 03 8f 14 62 d0 02 3c 0c 00 b0 11 52 00 71 10   ....b..<....R.q.
  1620h: 60 0c 52 01 60 0d 52 02 70 cf 60 0f 62 d0 02 3c   `.R.`.R.p.`.b..<
  1630h: 0c 00 a0 07 62 d0 00 55 da 05 62 d0 02 51 0c 62   ....b..U..b..Q.b
  1640h: d0 00 38 fa 20 7f 71 10 41 0c fb 5d 0d 70 cf 62   ..8. .q.A..].p.b
  1650h: d0 00 53 ed 26 ed fb 2e ed 04 51 ed 71 10 60 0d   ..S.&.....Q.q.`.
  1660h: 70 cf 5d 0f 53 ed 26 ed fb 2e ed 04 51 ed 60 0f   p.].S.&.....Q.`.
  1670h: 7f 71 10 41 0c fb 41 0d fb 70 cf 41 0f fb 7f 10   .q.A..A..p.A....
  1680h: 4f 38 03 9f ec 50 00 08 50 05 08 91 f3 38 fe 62   O8...P..P....8.b
  1690h: d0 00 5d 0c 53 ed 47 ed 04 a0 09 56 02 01 56 01   ..].S.G....V..V.
  16a0h: 00 80 07 56 02 00 56 01 00 62 d0 00 52 02 54 00   ...V..V..b..R.T.
  16b0h: 9f 94 52 00 62 d0 00 38 fd 20 7f 62 d0 02 3c 08   ..R.b..8. .b..<.
  16c0h: 00 a0 08 62 d0 00 50 00 80 06 9f b3 62 d0 00 7f   ...b..P.....b...
  16d0h: 71 10 41 14 ad 41 15 ad 70 cf 41 17 ad 7f 10 4f   q.A..A..p.A....O
  16e0h: 38 03 62 10 e0 5d 10 54 02 62 10 0f 5d 10 54 01   8.b..].T.b..].T.
  16f0h: 62 10 e0 52 01 23 02 54 00 3d 00 21 a0 06 3d 00   b..R.#.T.=.!..=.
  1700h: 81 b0 04 56 00 81 52 00 62 d0 00 38 fd 20 7f 10   ...V..R.b..8. ..
  1710h: 4f 38 01 56 00 00 80 0e 9d e9 62 d0 00 53 ed 52   O8.V......b..S.R
  1720h: 00 2a ed 54 00 9f b7 62 d0 00 39 00 a0 06 3d 00   .*.T...b..9...=.
  1730h: 00 af e6 52 00 62 d0 00 38 ff 20 7f 71 c0 08 5d   ...R.b..8. .q..]
  1740h: d0 08 62 d0 02 55 00 01 62 d0 00 55 d8 ff 18 60   ..b..U..b..U...`
  1750h: d0 18 7e 71 c0 08 5d d0 08 62 d0 00 51 ed 08 51   ..~q..]..b..Q..Q
  1760h: ec 08 62 d0 02 51 14 01 01 62 d0 00 53 ec 62 d0   ..b..Q...b..S.b.
  1770h: 02 51 13 09 00 62 d0 00 53 ed 51 ec 08 51 ed 62   .Q...b..S.Q..Q.b
  1780h: d0 02 53 13 18 53 14 62 d0 00 3c ed 03 b0 14 3c   ..S..S.b..<....<
  1790h: ec e8 b0 0f 62 d0 02 76 17 62 d0 02 55 14 00 55   ....b..v.b..U..U
  17a0h: 13 00 62 d0 02 76 16 0e 15 00 62 d0 00 18 53 ec   ..b..v....b...S.
  17b0h: 18 53 ed 18 60 d0 18 7e 71 c0 08 5d d0 08 5d d3   .S..`..~q..]..].
  17c0h: 08 5d d4 08 5d d5 08 62 d0 00 51 ed 08 51 ec 08   .]..]..b..Q..Q..
  17d0h: 51 eb 08 51 ea 08 51 e9 08 51 e8 08 51 e7 08 51   Q..Q..Q..Q..Q..Q
  17e0h: e6 08 51 e5 08 51 e4 08 51 e3 08 51 e2 08 51 e1   ..Q..Q..Q..Q..Q.
  17f0h: 08 51 e0 08 51 df 08 62 d0 02 3c 0a 00 b0 3c 3c   .Q..Q..b..<...<<
  1800h: 06 00 a0 1f 9e d8 39 00 b0 14 62 d0 02 55 06 00   ......9...b..U..
  1810h: 62 d0 00 55 da 05 10 7c 08 32 20 80 06 10 7c 08   b..U...|.2 ...|.
  1820h: 4c 20 62 d0 00 3c d7 00 a0 11 51 d6 01 01 53 d6   L b..<....Q...S.
  1830h: 39 14 b0 07 55 d6 00 55 d7 00 62 d0 02 76 12 0e   9...U..U..b..v..
  1840h: 11 00 62 d0 00 18 53 df 18 53 e0 18 53 e1 18 53   ..b...S..S..S..S
  1850h: e2 18 53 e3 18 53 e4 18 53 e5 18 53 e6 18 53 e7   ..S..S..S..S..S.
  1860h: 18 53 e8 18 53 e9 18 53 ea 18 53 eb 18 53 ec 18   .S..S..S..S..S..
  1870h: 53 ed 18 60 d5 18 60 d4 18 60 d3 18 60 d0 18 7e   S..`..`..`..`..~
  1880h: 10 4f 38 02 70 fe 56 01 00 56 00 00 62 d0 02 55   .O8.p.V..V..b..U
  1890h: 16 00 55 15 00 80 10 70 fe 62 d0 02 51 16 54 01   ..U....p.b..Q.T.
  18a0h: 51 15 54 00 71 01 52 fc 13 01 52 fb 1b 00 df e8   Q.T.q.R...R.....
  18b0h: 62 d0 00 50 00 38 fe 20 7f 10 4f 38 09 56 06 00   b..P.8. ..O8.V..
  18c0h: 56 03 00 56 02 00 62 d0 00 51 db 08 51 dc 08 51   V..V..b..Q..Q..Q
  18d0h: dd 08 51 de 08 50 00 08 08 08 50 32 08 62 d0 00   ..Q..P....P2.b..
  18e0h: 7c 2c dd 38 fc 18 53 ea 18 53 eb 18 53 ec 18 53   |,.8..S..S..S..S
  18f0h: ed 50 00 08 08 50 03 08 50 e8 08 51 ed 08 51 ec   .P...P..P..Q..Q.
  1900h: 08 51 eb 08 51 ea 08 7c 2c 10 18 53 ea 18 53 eb   .Q..Q..|,..S..S.
  1910h: 18 18 38 fc 51 ea 53 ec 51 eb 53 ed 51 ec 54 08   ..8.Q.S.Q.S.Q.T.
  1920h: 51 ed 54 07 41 11 f0 62 d0 02 3c 08 00 a0 0a 55   Q.T.A..b..<....U
  1930h: 00 00 62 da df 43 e0 20 71 10 41 e0 e7 70 cf 43   ..b..C. q.A..p.C
  1940h: e0 40 62 d0 02 55 0a 01 62 d0 00 52 fc 53 ea 52   .@b..U..b..R.S.R
  1950h: fb 53 eb 62 d0 00 51 db 08 51 dc 08 51 dd 08 51   .S.b..Q..Q..Q..Q
  1960h: de 08 62 d0 00 50 00 08 08 51 eb 08 51 ea 08 7c   ..b..P...Q..Q..|
  1970h: 2c dd 38 fc 18 53 ea 18 53 eb 18 53 ec 18 53 ed   ,.8..S..S..S..S.
  1980h: 50 00 08 08 50 03 08 50 e8 08 51 ed 08 51 ec 08   P...P..P..Q..Q..
  1990h: 51 eb 08 51 ea 08 7c 2c 10 18 53 ea 18 53 eb 18   Q..Q..|,..S..S..
  19a0h: 18 38 fc 51 ea 53 ec 51 eb 53 ed 51 ec 54 05 51   .8.Q.S.Q.S.Q.T.Q
  19b0h: ed 54 04 56 01 00 56 00 00 80 84 62 d0 02 3c 05   .T.V..V....b..<.
  19c0h: 00 a0 61 62 d0 00 52 03 53 ec 52 02 53 ed 51 ec   ..ab..R.S.R.S.Q.
  19d0h: 01 01 54 03 51 ed 09 00 54 02 51 ec 53 ea 51 ed   ..T.Q...T.Q.S.Q.
  19e0h: 53 eb 50 00 62 d0 00 3a db b0 23 3a dc b0 1f 62   S.P.b..:..#:...b
  19f0h: d0 00 51 eb 62 d0 00 3a dd b0 13 62 d0 00 51 ea   ..Q.b..:...b..Q.
  1a00h: 62 d0 00 3a de b0 07 56 03 00 56 02 00 52 03 13   b..:...V..V..R..
  1a10h: 08 52 02 1b 07 d0 08 10 7c 08 6c 20 80 06 10 7c   .R......|.l ...|
  1a20h: 08 70 20 62 d0 02 3c 08 00 a0 0b 3c 00 00 a0 06   .p b..<....<....
  1a30h: 56 06 01 80 14 43 ff 08 40 77 01 0f 00 00 52 01   V....C..@w....R.
  1a40h: 13 05 52 00 1b 04 cf 74 43 11 0f 62 d0 02 3c 08   ..R....tC..b..<.
  1a50h: 00 a0 04 41 e0 df 62 d0 02 55 0a 00 41 e0 bf 52   ...A..b..U..A..R
  1a60h: 06 62 d0 00 38 f7 20 7f 10 4f 3d fc 00 b0 10 52   .b..8. ..O=....R
  1a70h: fa 08 52 fb 08 9e 42 38 fe 62 d0 00 80 0e 52 fa   ..R...B8.b....R.
  1a80h: 08 52 fb 08 9d fa 38 fe 62 d0 00 20 7f 10 4f 38   .R....8.b.. ..O8
  1a90h: 02 71 10 62 e9 9b 70 fe 70 cf 71 10 41 e0 e7 70   .q.b..p.p.q.A..p
  1aa0h: cf 43 e0 40 62 d0 02 55 0a 00 62 d0 02 55 12 00   .C.@b..U..b..U..
  1ab0h: 55 11 00 62 d0 02 55 16 00 55 15 00 56 01 00 56   U..b..U..U..V..V
  1ac0h: 00 00 80 10 70 fe 62 d0 02 51 16 54 01 51 15 54   ....p.b..Q.T.Q.T
  1ad0h: 00 71 01 50 e8 13 01 50 03 1b 00 df e8 41 e0 bf   .q.P...P.....A..
  1ae0h: 62 d0 02 51 12 62 d0 00 53 de 62 d0 02 51 11 62   b..Q.b..S.b..Q.b
  1af0h: d0 00 53 dd 55 dc 00 55 db 00 38 fe 20 7f 62 d0   ..S.U..U..8. .b.
  1b00h: 00 51 d9 01 01 53 d9 62 d0 00 39 14 c0 09 62 d0   .Q...S.b..9...b.
  1b10h: 00 55 d9 00 9f 77 7f 62 d0 02 55 17 00 62 d0 00   .U...w.b..U..b..
  1b20h: 55 d4 00 50 00 08 50 08 08 50 00 08 08 50 00 08   U..P..P..P...P..
  1b30h: 50 cc 08 7c 2d 91 38 fa 7f 10 4f 38 04 56 00 00   P..|-.8...O8.V..
  1b40h: 9b 9c 62 d0 00 54 01 39 00 a1 0b 50 00 08 50 3c   ..b..T.9...P..P<
  1b50h: 08 9d 2d 38 fe 62 d0 00 9b 84 62 d0 00 3b 01 b0   ..-8.b....b..;..
  1b60h: f5 52 01 08 98 36 38 ff 54 00 39 00 a0 7b 62 d0   .R...68.T.9..{b.
  1b70h: 02 3c 09 00 b0 07 7c 24 e4 62 d0 00 3d 00 23 a0   .<....|$.b..=.#.
  1b80h: 6b 62 d0 00 3c d4 08 d0 2c 62 d0 00 51 d4 62 d0   kb..<...,b..Q.b.
  1b90h: 00 53 ed 01 01 62 d0 00 53 d4 62 d0 00 51 ed 53   .S...b..S.b..Q.S
  1ba0h: ec 55 ed 00 06 ec cc 0e ed 00 51 ed 60 d5 52 00   .U........Q.`.R.
  1bb0h: 3f ec 80 38 50 00 08 50 07 08 50 00 08 50 cd 08   ?..8P..P..P..P..
  1bc0h: 50 00 08 50 cc 08 7c 2d 63 38 fa 62 d0 00 51 d4   P..P..|-c8.b..Q.
  1bd0h: 62 d0 00 53 ec 55 ed 00 06 ec cc 0e ed 00 51 ed   b..S.U........Q.
  1be0h: 60 d5 52 00 3f ec 80 04 56 00 7f 3d 00 00 a0 53   `.R.?...V..=...S
  1bf0h: 3d 00 23 a0 4e 56 03 00 62 d0 02 51 17 01 05 54   =.#.NV..b..Q...T
  1c00h: 02 80 0e 98 fe 62 d0 00 53 ed 52 03 2a ed 54 03   .....b..S.R.*.T.
  1c10h: 62 d0 02 51 17 3b 02 a0 0a 9a c3 62 d0 00 39 00   b..Q.;.....b..9.
  1c20h: bf e2 62 d0 02 51 17 3b 02 b0 0c 62 d0 02 55 06   ..b..Q.;...b..U.
  1c30h: 01 56 00 00 80 0d 3d 03 00 a0 08 62 d0 00 50 21   .V....=....b..P!
  1c40h: 80 19 3d 00 7f b0 04 56 00 00 3d 00 00 a0 07 62   ..=....V..=....b
  1c50h: d0 02 55 17 00 52 00 62 d0 00 38 fc 20 7f 10 4f   ..U..R.b..8. ..O
  1c60h: 38 01 9e d5 62 d0 00 54 00 39 00 a0 13 3d 00 30   8...b..T.9...=.0
  1c70h: c0 07 50 39 3b 00 d0 08 62 d0 00 50 01 80 06 62   ..P9;...b..P...b
  1c80h: d0 00 50 00 38 ff 20 7f 10 4f 9e 8b 80 2c 9f ce   ..P.8. ..O...,..
  1c90h: 62 d0 00 39 00 a0 05 50 00 80 2c 62 d0 00 51 d4   b..9...P..,b..Q.
  1ca0h: 3b fc b0 16 62 d0 02 3c 09 00 b0 07 7c 24 f5 62   ;...b..<....|$.b
  1cb0h: d0 00 62 d0 00 50 01 80 0e 62 d0 02 3c 17 0a cf   ..b..P...b..<...
  1cc0h: ce 62 d0 00 50 00 20 7f 10 4f 38 01 9e 49 80 15   .b..P. ..O8..I..
  1cd0h: 9e 67 62 d0 00 54 00 39 00 a0 0a 3d 00 23 b0 05   .gb..T.9...=.#..
  1ce0h: 50 01 80 0e 62 d0 02 3c 17 0a cf e5 62 d0 00 50   P...b..<....b..P
  1cf0h: 00 38 ff 20 7f 10 4f 38 01 56 00 00 80 4a 50 01   .8. ..O8.V...JP.
  1d00h: 08 9f 85 38 ff 62 d0 00 39 00 a0 23 52 00 53 ec   ...8.b..9..#R.S.
  1d10h: 55 ed 00 06 ec 3b 0e ed 02 51 ed 10 58 ec 28 20   U....;...Q..X.( 
  1d20h: 53 ed 62 d0 00 51 cc 62 d0 00 3a ed a0 08 62 d0   S.b..Q.b..:...b.
  1d30h: 00 50 00 80 2f 50 03 08 50 02 08 50 32 08 95 bd   .P../P..P..P2...
  1d40h: 38 fd 62 d0 00 77 00 3d 00 0a cf b3 50 01 08 9f   8.b..w.=....P...
  1d50h: 37 38 ff 62 d0 00 39 00 b0 05 50 00 80 06 62 d0   78.b..9...P...b.
  1d60h: 00 50 01 38 ff 20 7f 10 4f 38 01 56 00 00 80 35   .P.8. ..O8.V...5
  1d70h: 50 01 08 9f 13 38 ff 62 d0 00 39 00 b0 05 50 00   P....8.b..9...P.
  1d80h: 80 3f 50 01 08 62 d0 00 52 00 53 ec 55 ed 00 06   .?P..b..R.S.U...
  1d90h: ec 45 0e ed 02 51 ed 08 51 ec 08 95 60 38 fd 62   .E...Q..Q...`8.b
  1da0h: d0 00 77 00 3d 00 12 cf c8 50 01 08 9e da 38 ff   ..w.=....P....8.
  1db0h: 62 d0 00 39 00 b0 05 50 00 80 06 62 d0 00 50 01   b..9...P...b..P.
  1dc0h: 38 ff 20 7f 50 01 08 9e bf 38 ff 62 d0 00 39 00   8. .P....8.b..9.
  1dd0h: b0 05 50 00 80 30 7c 28 af 50 01 08 9e aa 38 ff   ..P..0|(.P....8.
  1de0h: 62 d0 00 39 00 b0 05 50 00 80 1b 7c 28 b7 50 01   b..9...P...|(.P.
  1df0h: 08 9e 95 38 ff 62 d0 00 39 00 b0 05 50 00 80 06   ...8.b..9...P...
  1e00h: 62 d0 00 50 01 7f 50 01 08 9e 7d 38 ff 62 d0 00   b..P..P...}8.b..
  1e10h: 39 00 b0 05 50 00 80 e1 98 65 62 d0 00 39 00 a0   9...P....eb..9..
  1e20h: 15 50 03 08 50 02 08 50 32 08 94 d1 38 fd 62 d0   .P..P..P2...8.b.
  1e30h: 00 53 ed 80 11 50 03 08 50 02 08 50 35 08 94 bd   .S...P..P..P5...
  1e40h: 38 fd 62 d0 00 50 01 08 9e 3e 38 ff 62 d0 00 39   8.b..P...>8.b..9
  1e50h: 00 b0 05 50 00 80 a2 7c 14 dc 5d 0c 62 d0 00 53   ...P...|..].b..S
  1e60h: ed 47 ed 01 a0 1e 5d 0c 53 ed 47 ed 02 b0 15 50   .G....].S.G....P
  1e70h: 03 08 50 02 08 50 32 08 94 83 38 fd 62 d0 00 53   ..P..P2...8.b..S
  1e80h: ed 80 11 50 03 08 50 02 08 50 35 08 94 6f 38 fd   ...P..P..P5..o8.
  1e90h: 62 d0 00 50 01 08 9d f0 38 ff 62 d0 00 39 00 b0   b..P....8.b..9..
  1ea0h: 05 50 00 80 54 5d 0c 62 d0 00 53 ed 47 ed 01 b0   .P..T].b..S.G...
  1eb0h: 1e 5d 0c 53 ed 47 ed 02 a0 15 50 03 08 50 02 08   .].S.G....P..P..
  1ec0h: 50 32 08 94 38 38 fd 62 d0 00 53 ed 80 11 50 03   P2..88.b..S...P.
  1ed0h: 08 50 02 08 50 35 08 94 24 38 fd 62 d0 00 50 01   .P..P5..$8.b..P.
  1ee0h: 08 9d a5 38 ff 62 d0 00 39 00 b0 05 50 00 80 09   ...8.b..9...P...
  1ef0h: 7c 14 ea 62 d0 00 50 01 7f 10 4f 38 01 56 00 00   |..b..P...O8.V..
  1f00h: 80 5f 50 01 08 9d 81 38 ff 62 d0 00 39 00 b0 05   ._P....8.b..9...
  1f10h: 50 00 80 69 96 c5 62 d0 02 3c 02 00 a0 15 50 03   P..i..b..<....P.
  1f20h: 08 50 02 08 50 38 08 93 d4 38 fd 62 d0 00 53 ed   .P..P8...8.b..S.
  1f30h: 80 2d 62 d0 02 3c 03 00 a0 15 50 03 08 50 02 08   .-b..<....P..P..
  1f40h: 50 35 08 93 b8 38 fd 62 d0 00 53 ed 80 11 50 03   P5...8.b..S...P.
  1f50h: 08 50 02 08 50 32 08 93 a4 38 fd 62 d0 00 77 00   .P..P2...8.b..w.
  1f60h: 3d 00 03 cf 9e 50 01 08 9d 1e 38 ff 62 d0 00 39   =....P....8.b..9
  1f70h: 00 b0 05 50 00 80 06 62 d0 00 50 01 38 ff 20 7f   ...P...b..P.8. .
  1f80h: 50 01 08 9d 03 38 ff 62 d0 00 39 00 b0 05 50 00   P....8.b..9...P.
  1f90h: 80 2f 10 7c 08 6c 20 50 07 08 50 d0 08 99 1a 38   ./.|.l P..P....8
  1fa0h: fe 62 d0 00 10 7c 08 70 20 50 01 08 9c da 38 ff   .b...|.p P....8.
  1fb0h: 62 d0 00 39 00 b0 05 50 00 80 06 62 d0 00 50 01   b..9...P...b..P.
  1fc0h: 7f 62 d0 02 55 01 01 95 e2 10 7c 07 f0 20 7f 95   .b..U.....|.. ..
  1fd0h: f2 10 7c 07 f4 20 62 d0 02 55 01 00 7f 10 4f 38   ..|.. b..U....O8
  1fe0h: 0b 50 00 08 50 cc 08 7c 12 46 38 fe 62 d0 00 39   .P..P..|.F8.b..9
  1ff0h: 00 a2 d8 9c d3 39 00 a2 d2 62 d0 00 3c d4 01 b2   .....9...b..<...
  2000h: ca 51 cc 54 01 56 00 00 3d 00 00 b0 06 3d 01 30   .Q.T.V..=....=.0
  2010h: a2 4d 3d 00 00 b0 06 3d 01 31 a0 35 3d 00 00 b0   .M=....=.1.5=...
  2020h: 06 3d 01 32 a0 9c 3d 00 00 b0 06 3d 01 33 a1 22   .=.2..=....=.3."
  2030h: 3d 00 00 b0 06 3d 01 34 a1 b2 3d 00 00 b0 06 3d   =....=.4..=....=
  2040h: 01 35 a1 cf 3d 00 00 b0 06 3d 01 36 a1 ea 82 7b   .5..=....=.6...{
  2050h: 9c 76 62 d0 00 39 00 a2 72 50 00 08 50 08 08 50   .vb..9..rP..P..P
  2060h: 00 08 50 cc 08 5a ec 06 ec 02 50 03 08 51 ec 08   ..P..Z....P..Q..
  2070h: 7c 2d 63 38 fa 9c 51 62 d0 00 39 00 a2 4d 50 00   |-c8..Qb..9..MP.
  2080h: 08 50 08 08 50 00 08 50 cc 08 5a ec 06 ec 02 50   .P..P..P..Z....P
  2090h: 03 08 51 ec 08 7c 2d bf 38 fa 62 d0 00 3c ed 00   ..Q..|-.8.b..<..
  20a0h: b2 29 3c ec 00 b2 24 62 d0 00 5a ec 06 ec 02 50   .)<...$b..Z....P
  20b0h: 03 08 51 ec 08 7c 12 a0 38 fe 62 d0 00 50 01 82   ..Q..|..8.b..P..
  20c0h: 0f 9c 05 62 d0 00 39 00 a2 01 50 00 08 50 08 08   ...b..9...P..P..
  20d0h: 50 00 08 50 cc 08 5a ec 06 ec 02 50 03 08 51 ec   P..P..Z....P..Q.
  20e0h: 08 7c 2d 63 62 d0 00 5a ec 06 ec 02 50 03 08 51   .|-cb..Z....P..Q
  20f0h: ec 08 7c 12 c3 38 f8 62 d0 00 39 00 b1 cd 9b c8   ..|..8.b..9.....
  2100h: 62 d0 00 39 00 a1 c4 50 00 08 50 08 08 50 00 08   b..9...P..P..P..
  2110h: 50 cc 08 5a ec 06 ec 02 50 03 08 51 ec 08 7c 2d   P..Z....P..Q..|-
  2120h: bf 38 fa 62 d0 00 3c ed 00 b1 a0 3c ec 00 b1 9b   .8.b..<....<....
  2130h: 7c 13 72 62 d0 00 54 0a 39 14 d1 8f 50 00 08 50   |.rb..T.9...P..P
  2140h: cc 08 52 0a 08 7c 12 ef 38 fd 62 d0 00 50 01 81   ..R..|..8.b..P..
  2150h: 7f 9b 75 62 d0 00 39 00 a1 71 50 00 08 50 08 08   ..ub..9..qP..P..
  2160h: 50 00 08 50 cc 08 5a ec 06 ec 02 50 03 08 51 ec   P..P..Z....P..Q.
  2170h: 08 7c 2d 63 62 d0 00 5a ec 06 ec 02 50 03 08 51   .|-cb..Z....P..Q
  2180h: ec 08 7c 12 c3 38 f8 62 d0 00 39 00 a1 3d 9b 38   ..|..8.b..9..=.8
  2190h: 62 d0 00 39 00 a1 34 50 00 08 50 08 08 50 00 08   b..9..4P..P..P..
  21a0h: 50 cc 08 5a ec 06 ec 02 50 03 08 51 ec 08 7c 2d   P..Z....P..Q..|-
  21b0h: bf 38 fa 62 d0 00 3c ed 00 b1 10 3c ec 00 b1 0b   .8.b..<....<....
  21c0h: 62 d0 00 5a ec 06 ec 02 50 03 08 51 ec 08 7c 11   b..Z....P..Q..|.
  21d0h: c6 38 fe 62 d0 00 54 0a 39 14 d0 ef 52 0a 08 7c   .8.b..T.9...R..|
  21e0h: 13 2d 38 ff 62 d0 00 50 01 80 e5 62 d0 00 3c f7   .-8.b..P...b..<.
  21f0h: 00 b0 09 56 03 01 56 02 00 80 07 56 03 00 56 02   ...V..V....V..V.
  2200h: 00 52 03 62 d0 00 53 f7 7c 10 50 62 d0 00 50 01   .R.b..S.|.Pb..P.
  2210h: 80 be 9a b4 62 d0 00 39 00 a0 b0 50 00 08 50 cc   ....b..9...P..P.
  2220h: 08 7c 12 46 38 fe 62 d0 00 39 00 a0 9e 7c 13 57   .|.F8.b..9...|.W
  2230h: 62 d0 00 50 01 80 99 62 d0 00 3c f6 00 b0 09 56   b..P...b..<....V
  2240h: 03 01 56 02 00 80 07 56 03 00 56 02 00 52 03 62   ..V....V..V..R.b
  2250h: d0 00 53 f6 7c 10 50 62 d0 00 50 01 80 72 56 02   ..S.|.Pb..P..rV.
  2260h: 00 9a 65 62 d0 00 39 00 a0 54 50 00 08 50 cc 08   ..eb..9..TP..P..
  2270h: 7c 12 46 38 fe 62 d0 00 39 00 a0 42 93 21 62 d0   |.F8.b..9..B.!b.
  2280h: 02 55 09 01 9a 6f 62 d0 00 39 00 a0 31 9a d8 62   .U...ob..9..1..b
  2290h: d0 00 39 00 a0 28 9b 2c 62 d0 00 39 00 a0 1f 9b   ..9..(.,b..9....
  22a0h: 65 62 d0 00 39 00 a0 16 9c 4f 62 d0 00 39 00 a0   eb..9....Ob..9..
  22b0h: 0d 9c cd 62 d0 00 39 00 a0 04 56 02 01 62 d0 02   ...b..9...V..b..
  22c0h: 55 09 00 52 02 62 d0 00 80 06 62 d0 00 50 00 38   U..R.b....b..P.8
  22d0h: f5 20 7f 9c ec 99 f1 62 d0 00 39 00 a0 15 9c fd   . .....b..9.....
  22e0h: 62 d0 00 39 00 a0 0c 9c e6 92 1b 62 d0 00 53 ed   b..9.......b..S.
  22f0h: 80 08 9c db 92 21 62 d0 00 7c 10 36 7f 10 4f 38   .....!b..|.6..O8
  2300h: 04 56 01 00 56 00 00 81 cd 62 d0 00 52 00 53 ec   .V..V....b..R.S.
  2310h: 55 ed 00 52 fc 04 ec 52 fb 0c ed 51 ed 10 58 ec   U..R...R...Q..X.
  2320h: 28 20 54 03 56 02 00 52 03 11 00 52 02 31 80 19   ( T.V..R...R.1..
  2330h: 80 c1 a1 50 1c 13 03 52 02 31 80 62 d0 00 53 e1   ...P...R.1.b..S.
  2340h: 50 80 1a e1 c1 8e 62 d0 00 52 03 53 ec 52 02 53   P.....b..R.S.R.S
  2350h: ed 65 ec 6b ed 06 ec c6 0e ed 02 51 ed 10 08 58   .e.k.......Q...X
  2360h: ec 28 53 ed 18 75 09 00 28 53 ec 20 51 ed 08 51   .(S..u..(S. Q..Q
  2370h: ec 08 7f 10 7c 07 f0 20 81 5a 10 7c 07 f4 20 81   ....|.. .Z.|.. .
  2380h: 53 10 7c 08 0e 20 81 4c 10 7c 08 6c 20 81 45 10   S.|.. .L.|.l .E.
  2390h: 7c 08 70 20 81 3e 10 7c 08 2e 20 81 37 10 7c 08   |.p .>.|.. .7.|.
  23a0h: 32 20 81 30 10 7c 0a 35 20 81 29 10 7c 0a 39 20   2 .0.|.5 .).|.9 
  23b0h: 81 22 10 7c 09 f7 20 81 1b 10 7c 09 fb 20 81 14   .".|.. ...|.. ..
  23c0h: 10 7c 09 b9 20 81 0d 10 7c 09 bd 20 81 06 10 7c   .|.. ...|.. ...|
  23d0h: 09 7b 20 80 ff 10 7c 09 7f 20 80 f8 10 7c 09 3d   .{ ...|.. ...|.=
  23e0h: 20 80 f1 10 7c 09 41 20 80 ea 91 b3 91 d5 80 e4    ...|.A ........
  23f0h: 10 7c 05 bf 20 80 dd 62 d0 00 3c f6 00 b0 09 62   .|.. ..b..<....b
  2400h: d0 02 3c 01 00 a0 cd 10 7c 05 bf 20 80 c6 10 7c   ..<.....|.. ...|
  2410h: 05 c3 20 80 bf 50 00 08 50 32 08 7c 18 b9 38 fe   .. ..P..P2.|..8.
  2420h: 62 d0 00 53 ed 52 01 2a ed 54 01 80 a7 50 00 08   b..S.R.*.T...P..
  2430h: 50 64 08 7c 18 b9 38 fe 62 d0 00 53 ed 52 01 2a   Pd.|..8.b..S.R.*
  2440h: ed 54 01 80 8f 50 00 08 50 fa 08 7c 18 b9 38 fe   .T...P..P..|..8.
  2450h: 62 d0 00 53 ed 52 01 2a ed 54 01 80 77 50 01 08   b..S.R.*.T..wP..
  2460h: 50 2c 08 7c 18 b9 38 fe 62 d0 00 53 ed 52 01 2a   P,.|..8.b..S.R.*
  2470h: ed 54 01 80 5f 50 01 08 50 f4 08 7c 18 b9 38 fe   .T.._P..P..|..8.
  2480h: 62 d0 00 53 ed 52 01 2a ed 54 01 80 47 50 02 08   b..S.R.*.T..GP..
  2490h: 50 58 08 7c 18 b9 38 fe 62 d0 00 53 ed 52 01 2a   PX.|..8.b..S.R.*
  24a0h: ed 54 01 80 2f 50 03 08 50 84 08 7c 18 b9 38 fe   .T../P..P..|..8.
  24b0h: 62 d0 00 53 ed 52 01 2a ed 54 01 80 17 50 03 08   b..S.R.*.T...P..
  24c0h: 50 e8 08 7c 18 b9 38 fe 62 d0 00 53 ed 52 01 2a   P..|..8.b..S.R.*
  24d0h: ed 54 01 77 00 52 00 3b fa ce 2f 52 01 62 d0 00   .T.w.R.;../R.b..
  24e0h: 38 fc 20 7f 50 06 08 50 01 08 50 a0 08 9e 0e 38   8. .P..P..P....8
  24f0h: fd 62 d0 00 7f 50 06 08 50 01 08 50 a6 08 9d fd   .b...P..P..P....
  2500h: 38 fd 62 d0 00 7f 50 0b 08 50 01 08 50 ac 08 9d   8.b...P..P..P...
  2510h: ec 38 fd 62 d0 00 7f 50 0f 08 50 01 08 50 b7 08   .8.b...P..P..P..
  2520h: 9d db 38 fd 62 d0 00 7f 50 0b 08 50 01 08 50 c6   ..8.b...P..P..P.
  2530h: 08 9d ca 38 fd 62 d0 00 7f 50 03 08 50 01 08 50   ...8.b...P..P..P
  2540h: d1 08 9d b9 38 fd 62 d0 00 7f 50 04 08 50 01 08   ....8.b...P..P..
  2550h: 50 d4 08 9d a8 38 fd 62 d0 00 7f 50 1a 08 50 01   P....8.b...P..P.
  2560h: 08 50 d8 08 9d 97 38 fd 62 d0 00 7f 50 13 08 50   .P....8.b...P..P
  2570h: 01 08 50 f2 08 9d 86 38 fd 62 d0 00 7f 50 11 08   ..P....8.b...P..
  2580h: 50 02 08 50 05 08 9d 75 38 fd 62 d0 00 7f 50 1c   P..P...u8.b...P.
  2590h: 08 50 02 08 50 16 08 9d 64 38 fd 62 d0 00 7f 10   .P..P...d8.b....
  25a0h: 7c 07 f4 7c 08 32 7c 08 70 20 7f 10 7c 0a 35 7c   |..|.2|.p ..|.5|
  25b0h: 09 f7 7c 09 b9 7c 09 7b 7c 09 3d 20 62 d0 02 55   ..|..|.{|.= b..U
  25c0h: 0b 01 7f 10 7c 0a 39 7c 09 fb 7c 09 bd 7c 09 7f   ....|.9|..|..|..
  25d0h: 7c 09 41 20 62 d0 02 55 0b 00 7f 10 4f 38 02 9f   |.A b..U....O8..
  25e0h: e2 62 63 15 10 7c 05 22 20 10 50 03 7c 06 42 20   .bc..|." .P.|.B 
  25f0h: 10 50 03 7c 0a f3 20 10 50 00 7c 0b 31 20 10 7c   .P.|.. .P.|.1 .|
  2600h: 0b 7a 62 d0 00 20 39 00 af f5 10 7c 0b 80 62 d0   .zb.. 9....|..b.
  2610h: 00 5a ed 20 54 01 51 ed 54 00 10 7c 05 26 7c 06   .Z. T.Q.T..|.&|.
  2620h: 7e 7c 0b 24 20 62 63 00 50 59 13 01 50 2d 1b 00   ~|.$ bc.PY..P-..
  2630h: c0 13 52 01 11 32 52 00 19 2c c0 09 62 d0 02 55   ..R..2R..,..b..U
  2640h: 02 01 80 07 62 d0 02 55 02 00 52 01 11 32 52 00   ....b..U..R..2R.
  2650h: 19 2c d0 09 62 d0 02 55 03 01 80 07 62 d0 02 55   .,..b..U....b..U
  2660h: 03 00 62 d0 00 52 01 53 ec 52 00 53 ed 38 fe 20   ..b..R.S.R.S.8. 
  2670h: 7f 10 4f 38 01 56 00 00 9f 61 62 d0 02 3c 02 00   ..O8.V...ab..<..
  2680h: a0 0a 9e d7 62 d0 00 52 fc 54 00 62 d0 02 3c 03   ....b..R.T.b..<.
  2690h: 00 a0 09 9e d7 62 d0 00 56 00 01 52 00 62 d0 00   .....b..V..R.b..
  26a0h: 38 ff 20 7f 10 4f 38 03 9f 31 62 d0 00 51 ec 54   8. ..O8..1b..Q.T
  26b0h: 02 51 ed 54 01 56 00 00 80 73 62 d0 00 52 00 53   .Q.T.V...sb..R.S
  26c0h: ec 50 00 08 51 ec 08 50 00 08 50 03 08 7c 2c 9f   .P..Q..P..P..|,.
  26d0h: 38 fc 51 e1 53 ec 51 e0 53 ed 06 ec 57 0e ed 02   8.Q.S.Q.S...W...
  26e0h: 51 ed 10 08 58 ec 28 53 ed 18 75 09 00 28 53 ec   Q...X.(S..u..(S.
  26f0h: 20 52 02 12 ec 52 01 1a ed c0 30 62 d0 00 52 00    R...R....0b..R.
  2700h: 53 ec 50 00 08 51 ec 08 50 00 08 50 03 08 7c 2c   S.P..Q..P..P..|,
  2710h: 9f 38 fc 51 e1 53 ec 51 e0 53 ed 06 ec 59 0e ed   .8.Q.S.Q.S...Y..
  2720h: 02 51 ed 10 58 ec 28 20 80 0d 77 00 3d 00 39 cf   .Q..X.( ..w.=.9.
  2730h: 8a 62 d0 00 50 ba 38 fd 20 7f 10 4f 38 07 43 16   .b..P.8. ..O8.C.
  2740h: 12 9f 61 62 d0 00 54 01 56 02 00 81 49 62 d0 02   ..ab..T.V...Ib..
  2750h: 3c 08 00 a0 2f 62 d0 00 52 02 53 ec 50 00 08 51   <.../b..R.S.P..Q
  2760h: ec 08 50 00 08 50 0a 08 7c 2c 9f 38 fc 51 e1 53   ..P..P..|,.8.Q.S
  2770h: ec 51 e0 53 ed 51 ec 01 90 54 06 51 ed 09 02 54   .Q.S.Q...T.Q...T
  2780h: 05 80 2d 62 d0 00 52 02 53 ec 50 00 08 51 ec 08   ..-b..R.S.P..Q..
  2790h: 50 00 08 50 0a 08 7c 2c 9f 38 fc 51 e1 53 ec 51   P..P..|,.8.Q.S.Q
  27a0h: e0 53 ed 51 ec 01 95 54 06 51 ed 09 02 54 05 52   .S.Q...T.Q...T.R
  27b0h: 06 54 04 52 05 54 03 71 10 5d 26 70 cf 62 d0 00   .T.R.T.q.]&p.b..
  27c0h: 53 ed 26 ed fc 52 fc 2c ed 51 ed 71 10 60 26 10   S.&..R.,.Q.q.`&.
  27d0h: 50 ba 70 cf 7c 06 0c 20 10 50 00 7c 06 0f 7c 06   P.p.|.. .P.|..|.
  27e0h: 04 20 3d fc 01 b0 0b 10 7c 07 3d 7c 06 bf 20 80   . =.....|.=|.. .
  27f0h: 09 10 7c 06 c3 7c 07 39 20 56 00 00 80 19 10 52   ..|..|.9 V.....R
  2800h: 00 7c 06 0f 20 50 00 08 50 01 08 7c 18 80 38 fe   .|.. P..P..|..8.
  2810h: 62 d0 00 07 00 10 52 00 3b 01 cf e3 10 52 01 7c   b.....R.;....R.|
  2820h: 06 0f 20 62 d0 00 52 04 53 ec 52 03 10 08 58 ec   .. b..R.S.R...X.
  2830h: 28 53 ed 18 75 09 00 28 53 ec 20 51 ed 08 51 ec   (S..u..(S. Q..Q.
  2840h: 08 7c 18 80 38 fe 62 d0 00 10 7c 06 08 20 62 d0   .|..8.b...|.. b.
  2850h: 00 52 02 01 01 39 01 d0 3b 62 d0 00 52 04 01 02   .R...9..;b..R...
  2860h: 53 ec 52 03 09 00 10 08 58 ec 28 53 ed 18 75 09   S.R.....X.(S..u.
  2870h: 00 28 53 ec 20 51 ed 08 51 ec 08 52 04 01 04 53   .(S. Q..Q..R...S
  2880h: ec 52 03 09 00 10 58 ec 28 20 08 7c 1a 68 38 fd   .R....X.( .|.h8.
  2890h: 62 d0 00 77 02 3d 02 01 ce b4 41 16 ed 10 7c 07   b..w.=....A...|.
  28a0h: 3d 7c 06 c3 7c 07 00 7c 06 86 20 38 f9 20 7f 50   =|..|..|.. 8. .P
  28b0h: 01 08 9e 86 38 ff 7f 50 00 08 9e 7e 38 ff 7f 10   ....8..P...~8...
  28c0h: 4f 38 01 9f ea 62 d0 02 55 05 01 50 0f 08 50 a0   O8...b..U..P..P.
  28d0h: 08 7c 18 b9 38 fe 54 00 62 d0 02 55 05 00 3d 00   .|..8.T.b..U..=.
  28e0h: 00 b0 03 9f d2 38 ff 20 7f 7c 14 dc 7c 16 46 7c   .....8. .|..|.F|
  28f0h: 16 d0 41 16 bf 10 7c 09 00 7c 07 3d 7c 06 c3 7c   ..A...|..|.=|..|
  2900h: 07 00 7c 06 86 20 9c bb 9c 95 10 7c 05 c3 7c 05   ..|.. .....|..|.
  2910h: 26 7c 07 b7 7c 07 7a 7c 08 c7 20 62 4c b0 50 00   &|..|.z|.. bL.P.
  2920h: 08 50 0f 08 50 00 08 08 50 02 08 50 00 08 7c 2d   .P..P...P..P..|-
  2930h: 91 50 00 08 50 13 08 50 00 08 08 50 00 08 50 cc   .P..P..P...P..P.
  2940h: 08 7c 2d 91 38 f4 7c 11 08 7c 10 36 62 10 e0 10   .|-.8.|..|.6b...
  2950h: 7c 05 5f 20 71 01 10 7c 05 67 20 50 07 08 50 d0   |._ q..|.g P..P.
  2960h: 08 7c 18 b9 38 fe 62 d0 00 7c 14 ea 7f 10 4f 38   .|..8.b..|....O8
  2970h: 02 62 d0 02 3c 06 00 a0 03 81 9f 9c 22 50 00 08   .b..<......."P..
  2980h: 50 14 08 7c 18 80 38 fe 62 d0 00 7c 1b 17 7c 16   P..|..8.b..|..|.
  2990h: de 62 d0 00 39 00 b1 63 81 80 7c 1b 39 54 00 39   .b..9..c..|.9T.9
  29a0h: 00 a1 4e 62 d0 00 55 da 05 3d 00 21 b0 03 81 6a   ..Nb..U..=.!...j
  29b0h: 3d 00 23 b1 21 62 d0 00 3c d4 00 a0 90 9c 04 50   =.#.!b..<......P
  29c0h: 00 08 9c ad 38 ff 39 00 b0 7b 62 d0 00 3c f7 00   ....8.9..{b..<..
  29d0h: a0 30 50 00 08 50 cc 08 7c 12 c3 38 fe 39 00 a0   .0P..P..|..8.9..
  29e0h: 21 62 d0 02 3c 0e 00 a0 06 9b a3 62 d0 00 9e cf   !b..<......b....
  29f0h: 7c 1a fe 62 d0 02 55 0e 00 62 d0 00 55 d7 00 80   |..b..U..b..U...
  2a00h: 44 9b 25 62 d0 00 55 d6 00 51 d7 01 01 53 d7 62   D.%b..U..Q...S.b
  2a10h: d0 00 39 03 b0 2f 56 01 00 80 0e 9b 2d 62 d0 00   ..9../V.....-b..
  2a20h: 7c 15 03 62 d0 00 77 01 7c 16 bb 62 d0 00 39 00   |..b..w.|..b..9.
  2a30h: b0 07 50 14 3b 01 df e4 62 d0 02 55 0e 01 62 d0   ..P.;...b..U..b.
  2a40h: 00 55 d7 00 62 d0 00 55 da 05 80 ce 62 d0 00 55   .U..b..U....b..U
  2a50h: d5 00 80 52 50 00 08 50 64 08 7c 18 b9 38 fe 62   ...RP..Pd.|..8.b
  2a60h: d0 00 39 00 a0 03 80 b2 62 d0 00 51 d5 01 01 62   ..9.....b..Q...b
  2a70h: d0 00 53 ed 62 d0 00 53 d5 62 d0 00 50 1e 3a ed   ..S.b..S.b..P.:.
  2a80h: d0 24 9a f9 62 d0 00 7c 17 0f 62 d0 00 39 00 b0   .$..b..|..b..9..
  2a90h: 0f 50 01 08 9b db 38 ff 62 d0 00 39 00 a0 03 80   .P....8.b..9....
  2aa0h: 79 98 30 80 75 7c 16 de 62 d0 00 39 81 af a6 7c   y.0.u|..b..9...|
  2ab0h: 16 bb 62 d0 00 39 00 a0 16 50 00 08 9b b3 38 ff   ..b..9...P....8.
  2ac0h: 62 d0 00 39 00 b0 53 9d f6 7c 1a fe 80 4c 9a db   b..9..S..|...L..
  2ad0h: 7c 1b 17 80 1c 62 d0 02 3c 04 00 a0 14 9a 5a 62   |....b..<.....Zb
  2ae0h: d0 00 50 00 08 9b 8a 38 ff 62 d0 00 53 ed 80 2a   ..P....8.b..S..*
  2af0h: 62 d0 02 3c 06 00 a0 03 80 20 62 d0 02 50 05 3a   b..<..... b..P.:
  2b00h: 17 de 98 62 d0 00 3c d4 00 a0 0f 62 d0 02 50 05   ...b..<....b..P.
  2b10h: 3a 17 d0 06 9a 12 62 d0 00 38 fe 20 7f 9d ca 62   :.....b..8. ...b
  2b20h: d0 00 55 d5 00 80 34 50 00 08 50 64 08 7c 18 b9   ..U...4P..Pd.|..
  2b30h: 38 fe 62 d0 00 51 d5 01 01 53 d5 62 d0 00 39 1e   8.b..Q...S.b..9.
  2b40h: c0 19 7c 1a 8d 7c 10 70 7c 10 bc 99 b9 62 d0 00   ..|..|.p|....b..
  2b50h: 7c 16 de 62 d0 00 39 00 bf f7 7c 16 de 39 81 af   |..b..9...|..9..
  2b60h: c7 62 d0 00 3c d5 1e d0 09 7c 1a 8d 99 98 62 d0   .b..<....|....b.
  2b70h: 00 62 d0 02 51 07 53 08 51 07 53 0d 80 8f 41 e0   .b..Q.S.Q.S...A.
  2b80h: df 62 d0 02 3c 00 00 b0 0e 3c 0d 00 b0 09 62 d0   .b..<....<....b.
  2b90h: 00 3c da 00 a0 1f 7c 15 03 39 00 b0 0b 62 d0 02   .<....|..9...b..
  2ba0h: 3c 00 00 a0 03 9d c6 9a 1a 99 f4 7c 16 de 62 d0   <..........|..b.
  2bb0h: 02 55 00 00 62 d0 02 3c 06 00 a0 07 7c 15 03 62   .U..b..<....|..b
  2bc0h: d0 00 62 d0 00 3c da 00 b0 3e 3c d7 00 b0 09 62   ..b..<...><....b
  2bd0h: d0 02 3c 06 00 a0 06 43 e0 40 80 04 41 e0 bf 71   ..<....C.@..A..q
  2be0h: 10 5d e0 70 cf 62 d0 00 53 ed 26 ed e7 2e ed 18   .].p.b..S.&.....
  2bf0h: 51 ed 71 10 60 e0 70 cf 62 e3 38 62 da df 43 e0   Q.q.`.p.b.8b..C.
  2c00h: 20 43 ff 08 40 80 06 62 d0 00 7a da 8f 71 8f ff    C..@..b..z..q..
  2c10h: 10 4f 38 01 7c 2c 1f 38 ff 20 70 3f 71 c0 7f 5d   .O8.|,.8. p?q..]
  2c20h: d0 08 62 d0 00 51 ed 08 50 00 53 ed 53 e1 53 e0   ..b..Q..P.S.S.S.
  2c30h: 53 df 56 00 20 66 fc 6c fb 6c fa 6c f9 6b df 6b   S.V. f.l.l.l.k.k
  2c40h: e0 6b e1 6b ed 51 df 1b f8 51 e0 1b f7 51 e1 1b   .k.k.Q...Q...Q..
  2c50h: f6 51 ed 1b f5 c0 11 53 ed 52 f8 14 df 52 f7 1c   .Q.....S.R...R..
  2c60h: e0 52 f6 1c e1 77 fc 7b 00 bf cb 51 df 54 f8 51   .R...w.{...Q.T.Q
  2c70h: e0 54 f7 51 e1 54 f6 51 ed 54 f5 18 53 ed 18 60   .T.Q.T.Q.T..S..`
  2c80h: d0 7f 53 e1 60 e8 51 e0 60 e9 5d ea 47 e1 80 a0   ..S.`.Q.`.].G...
  2c90h: 03 02 e0 47 e0 80 a0 03 02 e1 53 e1 5d eb 7f 10   ...G......S.]...
  2ca0h: 4f 5d d0 08 62 d0 00 52 f9 60 e9 52 fc 60 e8 5d   O]..b..R.`.R.`.]
  2cb0h: eb 53 e0 52 fa 60 e9 5d eb 53 e1 5d ea 48 fc 80   .S.R.`.].S.].H..
  2cc0h: a0 03 03 fa 6c fa d0 03 03 fc 04 e0 52 fb 60 e8   ....l.......R.`.
  2cd0h: 5d eb 04 e0 18 60 d0 20 70 3f 71 c0 7f 10 4f 5d   ]....`. p?q...O]
  2ce0h: d0 08 62 d0 00 52 f5 60 e8 52 fc 53 e0 60 e9 5d   ..b..R.`.R.S.`.]
  2cf0h: eb 54 f5 52 f6 7c 2c 82 54 f6 51 e1 05 f5 52 fb   .T.R.|,.T.Q...R.
  2d00h: 60 e9 5d eb 05 f5 52 f8 4c e0 7c 2c 82 54 f8 5f   `.]...R.L.|,.T._
  2d10h: df e1 52 fb 7c 2c 82 04 df 51 e1 0d f6 0f f5 00   ..R.|,...Q......
  2d20h: 52 fa 7c 2c 82 05 f6 51 e1 0d f5 52 f9 60 e8 5d   R.|,...Q...R.`.]
  2d30h: eb 05 f5 52 f7 53 e0 52 fc 7c 2c 82 02 df 54 f7   ...R.S.R.|,...T.
  2d40h: 51 e1 0d f6 0f f5 00 52 fb 7c 2c 82 05 f6 51 e1   Q......R.|,...Q.
  2d50h: 0d f5 52 fa 60 e8 5d eb 05 f5 18 60 d0 20 70 3f   ..R.`.]....`. p?
  2d60h: 71 c0 7f 62 d0 00 10 4f 52 fb 60 d5 52 f9 60 d4   q..b...OR.`.R.`.
  2d70h: 80 03 10 4f 52 fc 53 ec 53 eb 52 fb 53 ed 52 fa   ...OR.S.S.R.S.R.
  2d80h: 53 ea 3d f8 00 a0 09 7b f8 3e ea 3f eb 8f f4 20   S.=....{.>.?... 
  2d90h: 7f 62 d0 00 10 4f 52 fb 60 d5 80 03 10 4f 52 fc   .b...OR.`....OR.
  2da0h: 53 ec 53 eb 52 fb 53 ed 52 fa 80 08 3f eb 7b f8   S.S.R.S.R...?.{.
  2db0h: 1f f7 00 3d f8 00 bf f5 3d f7 00 bf f0 20 7f 10   ...=....=.... ..
  2dc0h: 4f 38 04 52 fc 54 01 52 fb 54 00 52 fa 54 03 52   O8.R.T.R.T.R.T.R
  2dd0h: f9 54 02 80 0b 77 01 0f 00 00 77 03 0f 02 00 62   .T...w....w....b
  2de0h: d0 00 52 f8 53 ec 52 f7 53 ed 51 ec 11 01 54 f8   ..R.S.R.S.Q...T.
  2df0h: 51 ed 19 00 54 f7 3c ed 00 b0 06 3c ec 00 a0 1e   Q...T.<....<....
  2e00h: 62 d0 00 52 03 53 ec 52 02 60 d4 3e ec 53 ed 52   b..R.S.R.`.>.S.R
  2e10h: 01 53 ea 52 00 60 d4 3e ea 3a ed af b9 62 d0 00   .S.R.`.>.:...b..
  2e20h: 52 f8 01 01 53 ec 52 f7 09 00 39 00 b0 06 3c ec   R...S.R...9...<.
  2e30h: 00 a0 1e 62 d0 00 52 03 53 ec 52 02 60 d4 3e ec   ...b..R.S.R.`.>.
  2e40h: 53 ed 52 01 53 ea 52 00 60 d4 3e ea 3a ed b0 0c   S.R.S.R.`.>.:...
  2e50h: 62 d0 00 55 ec 00 55 ed 00 80 32 62 d0 00 52 03   b..U..U...2b..R.
  2e60h: 53 ec 52 02 60 d4 3e ec 53 ed 52 01 53 ea 52 00   S.R.`.>.S.R.S.R.
  2e70h: 60 d4 3e ea 3a ed d0 0c 62 d0 00 55 ec ff 55 ed   `.>.:...b..U..U.
  2e80h: ff 80 0a 62 d0 00 55 ec 01 55 ed 00 38 fc 20 7f   ...b..U..U..8. .
  2e90h: 00 0c 00 d3 00 ee 00 0a 01 00 00 ff 01 ff 00 10   ................
  2ea0h: 02 0f 02 02 b5 02 11 00 07 ff 00 30 30 30 30 30   ...........00000
  2eb0h: 30 30 30 30 30 30 30 30 30 30 30 30 30 30 30 30   0000000000000000
  2ec0h: 30 30 30 30 30 30 30 30 30 30 30 30 30 30 30 30   0000000000000000
  2ed0h: 30 30 30 30 30 30 30 30 30 30 30 30 30 30 30 30   0000000000000000
  2ee0h: 30 30 30 30 30 30 30 30 30 30 30 30 30 30 30 30   0000000000000000
  2ef0h: 30 30 30 30 30 30 30 30 30 30 30 30 30 30 30 30   0000000000000000
  2f00h: 30 30 30 30 30 30 30 30 30 30 30 30 30 30 30 30   0000000000000000
  2f10h: 30 30 30 30 30 30 30 30 30 30 30 30 30 30 30 30   0000000000000000
  2f20h: 30 30 30 30 30 30 30 30 30 30 30 30 30 30 30 30   0000000000000000
  2f30h: 30 30 30 30 30 30 30 30 30 30 30 30 30 30 30 30   0000000000000000
  2f40h: 30 30 30 30 30 30 30 30 30 30 30 30 30 30 30 30   0000000000000000
  2f50h: 30 30 30 30 30 30 30 30 30 30 30 30 30 30 30 30   0000000000000000
  2f60h: 30 30 30 30 30 30 30 30 30 30 30 30 30 30 30 30   0000000000000000
  2f70h: 30 30 30 30 30 30 30 30 30 30 30 30 30 30 30 30   0000000000000000
  2f80h: 30 30 30 30 30 30 30 30 30 30 30 30 30 30 30 30   0000000000000000
  2f90h: 30 30 30 30 30 30 30 30 30 30 30 30 30 30 30 30   0000000000000000
  2fa0h: 30 30 30 30 30 30 30 30 30 30 30 30 30 30 30 30   0000000000000000
  2fb0h: 30 30 30 30 30 30 30 30 30 30 30 30 30 30 30 30   0000000000000000
  2fc0h: 30 30 30 30 30 30 30 30 30 30 30 30 30 30 30 30   0000000000000000
  2fd0h: 30 30 30 30 30 30 30 30 30 30 30 30 30 30 30 30   0000000000000000
  2fe0h: 30 30 30 30 30 30 30 30 30 30 30 30 30 30 30 30   0000000000000000
  2ff0h: 30 30 30 30 30 30 30 30 30 30 30 30 30 30 30 30   0000000000000000
  3000h: 30 30 30 30 30 30 30 30 30 30 30 30 30 30 30 30   0000000000000000
  3010h: 30 30 30 30 30 30 30 30 30 30 30 30 30 30 30 30   0000000000000000
  3020h: 30 30 30 30 30 30 30 30 30 30 30 30 30 30 30 30   0000000000000000
  3030h: 30 30 30 30 30 30 30 30 30 30 30 30 30 30 30 30   0000000000000000
  3040h: 30 30 30 30 30 30 30 30 30 30 30 30 30 30 30 30   0000000000000000
  3050h: 30 30 30 30 30 30 30 30 30 30 30 30 30 30 30 30   0000000000000000
  3060h: 30 30 30 30 30 30 30 30 30 30 30 30 30 30 30 30   0000000000000000
  3070h: 30 30 30 30 30 30 30 30 30 30 30 30 30 30 30 30   0000000000000000
  3080h: 30 30 30 30 30 30 30 30 30 30 30 30 30 30 30 30   0000000000000000
  3090h: 30 30 30 30 30 30 30 30 30 30 30 30 30 30 30 30   0000000000000000
  30a0h: 30 30 30 30 30 30 30 30 30 30 30 30 30 30 30 30   0000000000000000
  30b0h: 30 30 30 30 30 30 30 30 30 30 30 30 30 30 30 30   0000000000000000
  30c0h: 30 30 30 30 30 30 30 30 30 30 30 30 30 30 30 30   0000000000000000
  30d0h: 30 30 30 30 30 30 30 30 30 30 30 30 30 30 30 30   0000000000000000
  30e0h: 30 30 30 30 30 30 30 30 30 30 30 30 30 30 30 30   0000000000000000
  30f0h: 30 30 30 30 30 30 30 30 30 30 30 30 30 30 30 30   0000000000000000
  3100h: 30 30 30 30 30 30 30 30 30 30 30 30 30 30 30 30   0000000000000000
  3110h: 30 30 30 30 30 30 30 30 30 30 30 30 30 30 30 30   0000000000000000
  3120h: 30 30 30 30 30 30 30 30 30 30 30 30 30 30 30 30   0000000000000000
  3130h: 30 30 30 30 30 30 30 30 30 30 30 30 30 30 30 30   0000000000000000
  3140h: 30 30 30 30 30 30 30 30 30 30 30 30 30 30 30 30   0000000000000000
  3150h: 30 30 30 30 30 30 30 30 30 30 30 30 30 30 30 30   0000000000000000
  3160h: 30 30 30 30 30 30 30 30 30 30 30 30 30 30 30 30   0000000000000000
  3170h: 30 30 30 30 30 30 30 30 30 30 30 30 30 30 30 30   0000000000000000
  3180h: 30 30 30 30 30 30 30 30 30 30 30 30 30 30 30 30   0000000000000000
  3190h: 30 30 30 30 30 30 30 30 30 30 30 30 30 30 30 30   0000000000000000
  31a0h: 30 30 30 30 30 30 30 30 30 30 30 30 30 30 30 30   0000000000000000
  31b0h: 30 30 30 30 30 30 30 30 30 30 30 30 30 30 30 30   0000000000000000
  31c0h: 30 30 30 30 30 30 30 30 30 30 30 30 30 30 30 30   0000000000000000
  31d0h: 30 30 30 30 30 30 30 30 30 30 30 30 30 30 30 30   0000000000000000
  31e0h: 30 30 30 30 30 30 30 30 30 30 30 30 30 30 30 30   0000000000000000
  31f0h: 30 30 30 30 30 30 30 30 30 30 30 30 30 30 30 30   0000000000000000
  3200h: 30 30 30 30 30 30 30 30 30 30 30 30 30 30 30 30   0000000000000000
  3210h: 30 30 30 30 30 30 30 30 30 30 30 30 30 30 30 30   0000000000000000
  3220h: 30 30 30 30 30 30 30 30 30 30 30 30 30 30 30 30   0000000000000000
  3230h: 30 30 30 30 30 30 30 30 30 30 30 30 30 30 30 30   0000000000000000
  3240h: 30 30 30 30 30 30 30 30 30 30 30 30 30 30 30 30   0000000000000000
  3250h: 30 30 30 30 30 30 30 30 30 30 30 30 30 30 30 30   0000000000000000
  3260h: 30 30 30 30 30 30 30 30 30 30 30 30 30 30 30 30   0000000000000000
  3270h: 30 30 30 30 30 30 30 30 30 30 30 30 30 30 30 30   0000000000000000
  3280h: 30 30 30 30 30 30 30 30 30 30 30 30 30 30 30 30   0000000000000000
  3290h: 30 30 30 30 30 30 30 30 30 30 30 30 30 30 30 30   0000000000000000
  32a0h: 30 30 30 30 30 30 30 30 30 30 30 30 30 30 30 30   0000000000000000
  32b0h: 30 30 30 30 30 30 30 30 30 30 30 30 30 30 30 30   0000000000000000
  32c0h: 30 30 30 30 30 30 30 30 30 30 30 30 30 30 30 30   0000000000000000
  32d0h: 30 30 30 30 30 30 30 30 30 30 30 30 30 30 30 30   0000000000000000
  32e0h: 30 30 30 30 30 30 30 30 30 30 30 30 30 30 30 30   0000000000000000
  32f0h: 30 30 30 30 30 30 30 30 30 30 30 30 30 30 30 30   0000000000000000
  3300h: 30 30 30 30 30 30 30 30 30 30 30 30 30 30 30 30   0000000000000000
  3310h: 30 30 30 30 30 30 30 30 30 30 30 30 30 30 30 30   0000000000000000
  3320h: 30 30 30 30 30 30 30 30 30 30 30 30 30 30 30 30   0000000000000000
  3330h: 30 30 30 30 30 30 30 30 30 30 30 30 30 30 30 30   0000000000000000
  3340h: 30 30 30 30 30 30 30 30 30 30 30 30 30 30 30 30   0000000000000000
  3350h: 30 30 30 30 30 30 30 30 30 30 30 30 30 30 30 30   0000000000000000
  3360h: 30 30 30 30 30 30 30 30 30 30 30 30 30 30 30 30   0000000000000000
  3370h: 30 30 30 30 30 30 30 30 30 30 30 30 30 30 30 30   0000000000000000
  3380h: 30 30 30 30 30 30 30 30 30 30 30 30 30 30 30 30   0000000000000000
  3390h: 30 30 30 30 30 30 30 30 30 30 30 30 30 30 30 30   0000000000000000
  33a0h: 30 30 30 30 30 30 30 30 30 30 30 30 30 30 30 30   0000000000000000
  33b0h: 30 30 30 30 30 30 30 30 30 30 30 30 30 30 30 30   0000000000000000
  33c0h: 30 30 30 30 30 30 30 30 30 30 30 30 30 30 30 30   0000000000000000
  33d0h: 30 30 30 30 30 30 30 30 30 30 30 30 30 30 30 30   0000000000000000
  33e0h: 30 30 30 30 30 30 30 30 30 30 30 30 30 30 30 30   0000000000000000
  33f0h: 30 30 30 30 30 30 30 30 30 30 30 30 30 30 30 30   0000000000000000
  3400h: 30 30 30 30 30 30 30 30 30 30 30 30 30 30 30 30   0000000000000000
  3410h: 30 30 30 30 30 30 30 30 30 30 30 30 30 30 30 30   0000000000000000
  3420h: 30 30 30 30 30 30 30 30 30 30 30 30 30 30 30 30   0000000000000000
  3430h: 30 30 30 30 30 30 30 30 30 30 30 30 30 30 30 30   0000000000000000
  3440h: 30 30 30 30 30 30 30 30 30 30 30 30 30 30 30 30   0000000000000000
  3450h: 30 30 30 30 30 30 30 30 30 30 30 30 30 30 30 30   0000000000000000
  3460h: 30 30 30 30 30 30 30 30 30 30 30 30 30 30 30 30   0000000000000000
  3470h: 30 30 30 30 30 30 30 30 30 30 30 30 30 30 30 30   0000000000000000
  3480h: 30 30 30 30 30 30 30 30 30 30 30 30 30 30 30 30   0000000000000000
  3490h: 30 30 30 30 30 30 30 30 30 30 30 30 30 30 30 30   0000000000000000
  34a0h: 30 30 30 30 30 30 30 30 30 30 30 30 30 30 30 30   0000000000000000
  34b0h: 30 30 30 30 30 30 30 30 30 30 30 30 30 30 30 30   0000000000000000
  34c0h: 30 30 30 30 30 30 30 30 30 30 30 30 30 30 30 30   0000000000000000
  34d0h: 30 30 30 30 30 30 30 30 30 30 30 30 30 30 30 30   0000000000000000
  34e0h: 30 30 30 30 30 30 30 30 30 30 30 30 30 30 30 30   0000000000000000
  34f0h: 30 30 30 30 30 30 30 30 30 30 30 30 30 30 30 30   0000000000000000
  3500h: 30 30 30 30 30 30 30 30 30 30 30 30 30 30 30 30   0000000000000000
  3510h: 30 30 30 30 30 30 30 30 30 30 30 30 30 30 30 30   0000000000000000
  3520h: 30 30 30 30 30 30 30 30 30 30 30 30 30 30 30 30   0000000000000000
  3530h: 30 30 30 30 30 30 30 30 30 30 30 30 30 30 30 30   0000000000000000
  3540h: 30 30 30 30 30 30 30 30 30 30 30 30 30 30 30 30   0000000000000000
  3550h: 30 30 30 30 30 30 30 30 30 30 30 30 30 30 30 30   0000000000000000
  3560h: 30 30 30 30 30 30 30 30 30 30 30 30 30 30 30 30   0000000000000000
  3570h: 30 30 30 30 30 30 30 30 30 30 30 30 30 30 30 30   0000000000000000
  3580h: 30 30 30 30 30 30 30 30 30 30 30 30 30 30 30 30   0000000000000000
  3590h: 30 30 30 30 30 30 30 30 30 30 30 30 30 30 30 30   0000000000000000
  35a0h: 30 30 30 30 30 30 30 30 30 30 30 30 30 30 30 30   0000000000000000
  35b0h: 30 30 30 30 30 30 30 30 30 30 30 30 30 30 30 30   0000000000000000
  35c0h: 30 30 30 30 30 30 30 30 30 30 30 30 30 30 30 30   0000000000000000
  35d0h: 30 30 30 30 30 30 30 30 30 30 30 30 30 30 30 30   0000000000000000
  35e0h: 30 30 30 30 30 30 30 30 30 30 30 30 30 30 30 30   0000000000000000
  35f0h: 30 30 30 30 30 30 30 30 30 30 30 30 30 30 30 30   0000000000000000
  3600h: 30 30 30 30 30 30 30 30 30 30 30 30 30 30 30 30   0000000000000000
  3610h: 30 30 30 30 30 30 30 30 30 30 30 30 30 30 30 30   0000000000000000
  3620h: 30 30 30 30 30 30 30 30 30 30 30 30 30 30 30 30   0000000000000000
  3630h: 30 30 30 30 30 30 30 30 30 30 30 30 30 30 30 30   0000000000000000
  3640h: 30 30 30 30 30 30 30 30 30 30 30 30 30 30 30 30   0000000000000000
  3650h: 30 30 30 30 30 30 30 30 30 30 30 30 30 30 30 30   0000000000000000
  3660h: 30 30 30 30 30 30 30 30 30 30 30 30 30 30 30 30   0000000000000000
  3670h: 30 30 30 30 30 30 30 30 30 30 30 30 30 30 30 30   0000000000000000
  3680h: 30 30 30 30 30 30 30 30 30 30 30 30 30 30 30 30   0000000000000000
  3690h: 30 30 30 30 30 30 30 30 30 30 30 30 30 30 30 30   0000000000000000
  36a0h: 30 30 30 30 30 30 30 30 30 30 30 30 30 30 30 30   0000000000000000
  36b0h: 30 30 30 30 30 30 30 30 30 30 30 30 30 30 30 30   0000000000000000
  36c0h: 30 30 30 30 30 30 30 30 30 30 30 30 30 30 30 30   0000000000000000
  36d0h: 30 30 30 30 30 30 30 30 30 30 30 30 30 30 30 30   0000000000000000
  36e0h: 30 30 30 30 30 30 30 30 30 30 30 30 30 30 30 30   0000000000000000
  36f0h: 30 30 30 30 30 30 30 30 30 30 30 30 30 30 30 30   0000000000000000
  3700h: 30 30 30 30 30 30 30 30 30 30 30 30 30 30 30 30   0000000000000000
  3710h: 30 30 30 30 30 30 30 30 30 30 30 30 30 30 30 30   0000000000000000
  3720h: 30 30 30 30 30 30 30 30 30 30 30 30 30 30 30 30   0000000000000000
  3730h: 30 30 30 30 30 30 30 30 30 30 30 30 30 30 30 30   0000000000000000
  3740h: 30 30 30 30 30 30 30 30 30 30 30 30 30 30 30 30   0000000000000000
  3750h: 30 30 30 30 30 30 30 30 30 30 30 30 30 30 30 30   0000000000000000
  3760h: 30 30 30 30 30 30 30 30 30 30 30 30 30 30 30 30   0000000000000000
  3770h: 30 30 30 30 30 30 30 30 30 30 30 30 30 30 30 30   0000000000000000
  3780h: 30 30 30 30 30 30 30 30 30 30 30 30 30 30 30 30   0000000000000000
  3790h: 30 30 30 30 30 30 30 30 30 30 30 30 30 30 30 30   0000000000000000
  37a0h: 30 30 30 30 30 30 30 30 30 30 30 30 30 30 30 30   0000000000000000
  37b0h: 30 30 30 30 30 30 30 30 30 30 30 30 30 30 30 30   0000000000000000
  37c0h: 30 30 30 30 30 30 30 30 30 30 30 30 30 30 30 30   0000000000000000
  37d0h: 30 30 30 30 30 30 30 30 30 30 30 30 30 30 30 30   0000000000000000
  37e0h: 30 30 30 30 30 30 30 30 30 30 30 30 30 30 30 30   0000000000000000
  37f0h: 30 30 30 30 30 30 30 30 30 30 30 30 30 30 30 30   0000000000000000
  3800h: 30 30 30 30 30 30 30 30 30 30 30 30 30 30 30 30   0000000000000000
  3810h: 30 30 30 30 30 30 30 30 30 30 30 30 30 30 30 30   0000000000000000
  3820h: 30 30 30 30 30 30 30 30 30 30 30 30 30 30 30 30   0000000000000000
  3830h: 30 30 30 30 30 30 30 30 30 30 30 30 30 30 30 30   0000000000000000
  3840h: 30 30 30 30 30 30 30 30 30 30 30 30 30 30 30 30   0000000000000000
  3850h: 30 30 30 30 30 30 30 30 30 30 30 30 30 30 30 30   0000000000000000
  3860h: 30 30 30 30 30 30 30 30 30 30 30 30 30 30 30 30   0000000000000000
  3870h: 30 30 30 30 30 30 30 30 30 30 30 30 30 30 30 30   0000000000000000
  3880h: 30 30 30 30 30 30 30 30 30 30 30 30 30 30 30 30   0000000000000000
  3890h: 30 30 30 30 30 30 30 30 30 30 30 30 30 30 30 30   0000000000000000
  38a0h: 30 30 30 30 30 30 30 30 30 30 30 30 30 30 30 30   0000000000000000
  38b0h: 30 30 30 30 30 30 30 30 30 30 30 30 30 30 30 30   0000000000000000
  38c0h: 30 30 30 30 30 30 30 30 30 30 30 30 30 30 30 30   0000000000000000
  38d0h: 30 30 30 30 30 30 30 30 30 30 30 30 30 30 30 30   0000000000000000
  38e0h: 30 30 30 30 30 30 30 30 30 30 30 30 30 30 30 30   0000000000000000
  38f0h: 30 30 30 30 30 30 30 30 30 30 30 30 30 30 30 30   0000000000000000
  3900h: 30 30 30 30 30 30 30 30 30 30 30 30 30 30 30 30   0000000000000000
  3910h: 30 30 30 30 30 30 30 30 30 30 30 30 30 30 30 30   0000000000000000
  3920h: 30 30 30 30 30 30 30 30 30 30 30 30 30 30 30 30   0000000000000000
  3930h: 30 30 30 30 30 30 30 30 30 30 30 30 30 30 30 30   0000000000000000
  3940h: 30 30 30 30 30 30 30 30 30 30 30 30 30 30 30 30   0000000000000000
  3950h: 30 30 30 30 30 30 30 30 30 30 30 30 30 30 30 30   0000000000000000
  3960h: 30 30 30 30 30 30 30 30 30 30 30 30 30 30 30 30   0000000000000000
  3970h: 30 30 30 30 30 30 30 30 30 30 30 30 30 30 30 30   0000000000000000
  3980h: 30 30 30 30 30 30 30 30 30 30 30 30 30 30 30 30   0000000000000000
  3990h: 30 30 30 30 30 30 30 30 30 30 30 30 30 30 30 30   0000000000000000
  39a0h: 30 30 30 30 30 30 30 30 30 30 30 30 30 30 30 30   0000000000000000
  39b0h: 30 30 30 30 30 30 30 30 30 30 30 30 30 30 30 30   0000000000000000
  39c0h: 30 30 30 30 30 30 30 30 30 30 30 30 30 30 30 30   0000000000000000
  39d0h: 30 30 30 30 30 30 30 30 30 30 30 30 30 30 30 30   0000000000000000
  39e0h: 30 30 30 30 30 30 30 30 30 30 30 30 30 30 30 30   0000000000000000
  39f0h: 30 30 30 30 30 30 30 30 30 30 30 30 30 30 30 30   0000000000000000
  3a00h: 30 30 30 30 30 30 30 30 30 30 30 30 30 30 30 30   0000000000000000
  3a10h: 30 30 30 30 30 30 30 30 30 30 30 30 30 30 30 30   0000000000000000
  3a20h: 30 30 30 30 30 30 30 30 30 30 30 30 30 30 30 30   0000000000000000
  3a30h: 30 30 30 30 30 30 30 30 30 30 30 30 30 30 30 30   0000000000000000
  3a40h: 30 30 30 30 30 30 30 30 30 30 30 30 30 30 30 30   0000000000000000
  3a50h: 30 30 30 30 30 30 30 30 30 30 30 30 30 30 30 30   0000000000000000
  3a60h: 30 30 30 30 30 30 30 30 30 30 30 30 30 30 30 30   0000000000000000
  3a70h: 30 30 30 30 30 30 30 30 30 30 30 30 30 30 30 30   0000000000000000
  3a80h: 30 30 30 30 30 30 30 30 30 30 30 30 30 30 30 30   0000000000000000
  3a90h: 30 30 30 30 30 30 30 30 30 30 30 30 30 30 30 30   0000000000000000
  3aa0h: 30 30 30 30 30 30 30 30 30 30 30 30 30 30 30 30   0000000000000000
  3ab0h: 30 30 30 30 30 30 30 30 30 30 30 30 30 30 30 30   0000000000000000
  3ac0h: 30 30 30 30 30 30 30 30 30 30 30 30 30 30 30 30   0000000000000000
  3ad0h: 30 30 30 30 30 30 30 30 30 30 30 30 30 30 30 30   0000000000000000
  3ae0h: 30 30 30 30 30 30 30 30 30 30 30 30 30 30 30 30   0000000000000000
  3af0h: 30 30 30 30 30 30 30 30 30 30 30 30 30 30 30 30   0000000000000000
  3b00h: 30 30 30 30 30 30 30 30 30 30 30 30 30 30 30 30   0000000000000000
  3b10h: 30 30 30 30 30 30 30 30 30 30 30 30 30 30 30 30   0000000000000000
  3b20h: 30 30 30 30 30 30 30 30 30 30 30 30 30 30 30 30   0000000000000000
  3b30h: 30 30 30 30 30 30 30 30 30 30 30 30 30 30 30 30   0000000000000000
  3b40h: 30 30 30 30 30 30 30 30 30 30 30 30 30 30 30 30   0000000000000000
  3b50h: 30 30 30 30 30 30 30 30 30 30 30 30 30 30 30 30   0000000000000000
  3b60h: 30 30 30 30 30 30 30 30 30 30 30 30 30 30 30 30   0000000000000000
  3b70h: 30 30 30 30 30 30 30 30 30 30 30 30 30 30 30 30   0000000000000000
  3b80h: 30 30 30 30 30 30 30 30 30 30 30 30 30 30 30 30   0000000000000000
  3b90h: 30 30 30 30 30 30 30 30 30 30 30 30 30 30 30 30   0000000000000000
  3ba0h: 30 30 30 30 30 30 30 30 30 30 30 30 30 30 30 30   0000000000000000
  3bb0h: 30 30 30 30 30 30 30 30 30 30 30 30 30 30 30 30   0000000000000000
  3bc0h: 30 30 30 30 30 30 30 30 30 30 30 30 30 30 30 30   0000000000000000
  3bd0h: 30 30 30 30 30 30 30 30 30 30 30 30 30 30 30 30   0000000000000000
  3be0h: 30 30 30 30 30 30 30 30 30 30 30 30 30 30 30 30   0000000000000000
  3bf0h: 30 30 30 30 30 30 30 30 30 30 30 30 30 30 30 30   0000000000000000
  3c00h: 30 30 30 30 30 30 30 30 30 30 30 30 30 30 30 30   0000000000000000
  3c10h: 30 30 30 30 30 30 30 30 30 30 30 30 30 30 30 30   0000000000000000
  3c20h: 30 30 30 30 30 30 30 30 30 30 30 30 30 30 30 30   0000000000000000
  3c30h: 30 30 30 30 30 30 30 30 30 30 30 30 30 30 30 30   0000000000000000
  3c40h: 30 30 30 30 30 30 30 30 30 30 30 30 30 30 30 30   0000000000000000
  3c50h: 30 30 30 30 30 30 30 30 30 30 30 30 30 30 30 30   0000000000000000
  3c60h: 30 30 30 30 30 30 30 30 30 30 30 30 30 30 30 30   0000000000000000
  3c70h: 30 30 30 30 30 30 30 30 30 30 30 30 30 30 30 30   0000000000000000
  3c80h: 30 30 30 30 30 30 30 30 30 30 30 30 30 30 30 30   0000000000000000
  3c90h: 30 30 30 30 30 30 30 30 30 30 30 30 30 30 30 30   0000000000000000
  3ca0h: 30 30 30 30 30 30 30 30 30 30 30 30 30 30 30 30   0000000000000000
  3cb0h: 30 30 30 30 30 30 30 30 30 30 30 30 30 30 30 30   0000000000000000
  3cc0h: 30 30 30 30 30 30 30 30 30 30 30 30 30 30 30 30   0000000000000000
  3cd0h: 30 30 30 30 30 30 30 30 30 30 30 30 30 30 30 30   0000000000000000
  3ce0h: 30 30 30 30 30 30 30 30 30 30 30 30 30 30 30 30   0000000000000000
  3cf0h: 30 30 30 30 30 30 30 30 30 30 30 30 30 30 30 30   0000000000000000
  3d00h: 30 30 30 30 30 30 30 30 30 30 30 30 30 30 30 30   0000000000000000
  3d10h: 30 30 30 30 30 30 30 30 30 30 30 30 30 30 30 30   0000000000000000
  3d20h: 30 30 30 30 30 30 30 30 30 30 30 30 30 30 30 30   0000000000000000
  3d30h: 30 30 30 30 30 30 30 30 30 30 30 30 30 30 30 30   0000000000000000
  3d40h: 30 30 30 30 30 30 30 30 30 30 30 30 30 30 30 30   0000000000000000
  3d50h: 30 30 30 30 30 30 30 30 30 30 30 30 30 30 30 30   0000000000000000
  3d60h: 30 30 30 30 30 30 30 30 30 30 30 30 30 30 30 30   0000000000000000
  3d70h: 30 30 30 30 30 30 30 30 30 30 30 30 30 30 30 30   0000000000000000
  3d80h: 30 30 30 30 30 30 30 30 30 30 30 30 30 30 30 30   0000000000000000
  3d90h: 30 30 30 30 30 30 30 30 30 30 30 30 30 30 30 30   0000000000000000
  3da0h: 30 30 30 30 30 30 30 30 30 30 30 30 30 30 30 30   0000000000000000
  3db0h: 30 30 30 30 30 30 30 30 30 30 30 30 30 30 30 30   0000000000000000
  3dc0h: 30 30 30 30 30 30 30 30 30 30 30 30 30 30 30 30   0000000000000000
  3dd0h: 30 30 30 30 30 30 30 30 30 30 30 30 30 30 30 30   0000000000000000
  3de0h: 30 30 30 30 30 30 30 30 30 30 30 30 30 30 30 30   0000000000000000
  3df0h: 30 30 30 30 30 30 30 30 30 30 30 30 30 30 30 30   0000000000000000
  3e00h: 30 30 30 30 30 30 30 30 30 30 30 30 30 30 30 30   0000000000000000
  3e10h: 30 30 30 30 30 30 30 30 30 30 30 30 30 30 30 30   0000000000000000
  3e20h: 30 30 30 30 30 30 30 30 30 30 30 30 30 30 30 30   0000000000000000
  3e30h: 30 30 30 30 30 30 30 30 30 30 30 30 30 30 30 30   0000000000000000
  3e40h: 30 30 30 30 30 30 30 30 30 30 30 30 30 30 30 30   0000000000000000
  3e50h: 30 30 30 30 30 30 30 30 30 30 30 30 30 30 30 30   0000000000000000
  3e60h: 30 30 30 30 30 30 30 30 30 30 30 30 30 30 30 30   0000000000000000
  3e70h: 30 30 30 30 30 30 30 30 30 30 30 30 30 30 30 30   0000000000000000
  3e80h: 30 30 30 30 30 30 30 30 30 30 30 30 30 30 30 30   0000000000000000
  3e90h: 30 30 30 30 30 30 30 30 30 30 30 30 30 30 30 30   0000000000000000
  3ea0h: 30 30 30 30 30 30 30 30 30 30 30 30 30 30 30 30   0000000000000000
  3eb0h: 30 30 30 30 30 30 30 30 30 30 30 30 30 30 30 30   0000000000000000
  3ec0h: 30 30 30 30 30 30 30 30 30 30 30 30 30 30 30 30   0000000000000000
  3ed0h: 30 30 30 30 30 30 30 30 30 30 30 30 30 30 30 30   0000000000000000
  3ee0h: 30 30 30 30 30 30 30 30 30 30 30 30 30 30 30 30   0000000000000000
  3ef0h: 30 30 30 30 30 30 30 30 30 30 30 30 30 30 30 30   0000000000000000
  3f00h: 30 30 30 30 30 30 30 30 30 30 30 30 30 30 30 30   0000000000000000
  3f10h: 30 30 30 30 30 30 30 30 30 30 30 30 30 30 30 30   0000000000000000
  3f20h: 30 30 30 30 30 30 30 30 30 30 30 30 30 30 30 30   0000000000000000
  3f30h: 30 30 30 30 30 30 30 30 30 30 30 30 30 30 30 30   0000000000000000
  3f40h: 30 30 30 30 30 30 30 30 30 30 30 30 30 30 30 30   0000000000000000
  3f50h: 30 30 30 30 30 30 30 30 30 30 30 30 30 30 30 30   0000000000000000
  3f60h: 30 30 30 30 30 30 30 30 30 30 30 30 30 30 30 30   0000000000000000
  3f70h: 30 30 30 30 30 30 30 30 30 30 30 30 30 30 30 30   0000000000000000
  3f80h: 30 30 30 30 30 30 30 30 30 30 30 30 30 30 30 30   0000000000000000
  3f90h: 30 30 30 30 30 30 30 30 30 30 30 30 30 30 30 30   0000000000000000
  3fa0h: 30 30 30 30 30 30 30 30 30 30 30 30 30 30 30 30   0000000000000000
  3fb0h: 30 30 30 30 30 30 30 30 30 30 30 30 30 30 30 30   0000000000000000
  3fc0h: 30 30 30 30 30 30 30 30 30 30 30 30 30 30 30 30   0000000000000000
  3fd0h: 30 30 30 30 30 30 30 30 30 30 30 30 30 30 30 30   0000000000000000
  3fe0h: 30 30 30 30 30 30 30 30 30 30 30 30 30 30 30 30   0000000000000000
  3ff0h: 30 30 30 30 30 30 30 30 30 30 30 30 30 30 30 30   0000000000000000

IntVec_Reset:
  0000: 80 67     jmp   __Start
  0002: 30        halt
  0003: 30        halt
IntVec_SVM:
  0004: 30        halt
  0005: 30        halt
  0006: 30        halt
  0007: 30        halt
IntVec_AC0:
  0008: 7e        reti

  0009: 30        halt
  000a: 30        halt
  000b: 30        halt
IntVec_AC1:
  000c: 7e        reti

  000d: 30        halt
  000e: 30        halt
  000f: 30        halt
  0010: 30        halt
  0011: 30        halt
  0012: 30        halt
  0013: 30        halt
  0014: 30        halt
  0015: 30        halt
  0016: 30        halt
  0017: 30        halt
IntVec_VC3:
  0018: 7e        reti

  0019: 30        halt
  001a: 30        halt
  001b: 30        halt
IntVec_GPIo:
  001c: 7d 17 3c  ljmp  _ISR_gpio
  001f: 7e        reti

IntVec_DBB00:
  0020: 7d 0a 73  ljmp  _ADCINC_ADConversion_ISR
  0023: 7e        reti

IntVec_DBB01:
  0024: 7e        reti

  0025: 30        halt
  0026: 30        halt
  0027: 30        halt
IntVec_DCB02:
  0028: 7e        reti

  0029: 30        halt
  002a: 30        halt
  002b: 30        halt
IntVec_DCB03:
  002c: 7d 17 53  ljmp  _ISR_timer16
  002f: 7e        reti

  0030: 30        halt
  0031: 30        halt
  0032: 30        halt
  0033: 30        halt
  0034: 30        halt
  0035: 30        halt
  0036: 30        halt
  0037: 30        halt
  0038: 30        halt
  0039: 30        halt
  003a: 30        halt
  003b: 30        halt
  003c: 30        halt
  003d: 30        halt
  003e: 30        halt
  003f: 30        halt
IntVec_USB_Reset:
  0040: 7e        reti

  0041: 30        halt
  0042: 30        halt
  0043: 30        halt
IntVec_USB_SOF:
  0044: 7e        reti

  0045: 30        halt
  0046: 30        halt
  0047: 30        halt
IntVec_USB_EP0:
  0048: 7e        reti

  0049: 30        halt
  004a: 30        halt
  004b: 30        halt
IntVec_USB_EP1:
  004c: 7e        reti

  004d: 30        halt
  004e: 30        halt
  004f: 30        halt
IntVec_USB_EP2:
  0050: 7e        reti

  0051: 30        halt
  0052: 30        halt
  0053: 30        halt
IntVec_USB_EP3:
  0054: 7e        reti

  0055: 30        halt
  0056: 30        halt
  0057: 30        halt
IntVec_USB_EP4:
  0058: 7e        reti

  0059: 30        halt
  005a: 30        halt
  005b: 30        halt
IntVec_USB_Wakeup:
  005c: 7e        reti

  005d: 30        halt
  005e: 30        halt
  005f: 30        halt
IntVec_I2C:
  0060: 7e        reti

  0061: 30        halt
  0062: 30        halt
  0063: 30        halt
IntVec_Sleep:
  0064: 7d 17 b8  ljmp  _ISR_sleepTimer
  0067: 7e        reti

__Start:
  0068: 71 10     or    F,010h
  006a: 62 fa 00  mov   reg[NOT_USED],000h
  006d: 62 e3 08  mov   reg[VLT_CR],008h
  0070: 70 ef     and   F,0efh
  0072: 50 20     mov   A,020h
  0074: 28        romx
  0075: 41 fe fb  and   reg[CPU_SCR1],0fbh
  0078: 50 80     mov   A,080h
  007a: 4e        swap  A,SP
  007b: 5d d0     mov   A,reg[CUR_PP]
  007d: 08        push  A
  007e: 62 d0 00  mov   reg[CUR_PP],000h
  0081: 55 fa 01  mov   [SROM_BlockID],001h
  0084: 4f        mov   X,SP
  0085: 5b        mov   A,X
  0086: 01 03     add   A,003h
  0088: 53 f9     mov   [SROM_Key2],A
  008a: 55 f8 3a  mov   [SROM_Key1],03ah
  008d: 50 06     mov   A,006h
  008f: 00        ssc
  0090: 71 10     or    F,010h
  0092: 51 f9     mov   A,[SROM_Key2]
  0094: 60 e8     mov   reg[IMO_TR],A
  0096: 51 f8     mov   A,[SROM_Key1]
  0098: 60 ea     mov   reg[BDG_TR],A
  009a: 70 ef     and   F,0efh
  009c: 18        pop   A
  009d: 60 d0     mov   reg[CUR_PP],A
  009f: 5d d0     mov   A,reg[CUR_PP]
  00a1: 08        push  A
  00a2: 62 d0 00  mov   reg[CUR_PP],000h
  00a5: 55 fa 02  mov   [SROM_BlockID],002h
  00a8: 4f        mov   X,SP
  00a9: 5b        mov   A,X
  00aa: 01 03     add   A,003h
  00ac: 53 f9     mov   [SROM_Key2],A
  00ae: 55 f8 3a  mov   [SROM_Key1],03ah
  00b1: 50 06     mov   A,006h
  00b3: 00        ssc
  00b4: 71 10     or    F,010h
  00b6: 51 fa     mov   A,[SROM_BlockID]
  00b8: a0 03     jz    00bch
  00ba: 60 ef     mov   reg[NOT_USED],A
  00bc: 70 ef     and   F,0efh
  00be: 18        pop   A
  00bf: 60 d0     mov   reg[CUR_PP],A
  00c1: 55 f8 00  mov   [SROM_Key1],000h
  00c4: 55 f9 00  mov   [SROM_Key2],000h
  00c7: 71 10     or    F,010h
  00c9: 62 e0 02  mov   reg[OSC_CR0],002h
  00cc: 70 ef     and   F,0efh
  00ce: 62 e3 38  mov   reg[RES_WDT],038h
  00d1: 62 d1 03  mov   reg[STK_PP],003h
  00d4: 50 00     mov   A,000h
  00d6: 4e        swap  A,SP
  00d7: 62 d3 03  mov   reg[IDX_PP],003h
  00da: 62 d0 00  mov   reg[CUR_PP],000h
  00dd: 62 d5 00  mov   reg[MVW_PP],000h
  00e0: 62 d4 00  mov   reg[MVR_PP],000h
  00e3: 71 c0     or    F,0c0h ; Paging mode changed from 0 to 3
  00e5: 62 71 05  mov   reg[ACB00CR0],005h
  00e8: 62 75 05  mov   reg[ACB01CR0],005h
  00eb: 7c 05 0c  lcall _LoadConfigInit
  00ee: 71 10     or    F,010h
  00f0: 41 e7 3f  and   reg[NOT_USED],03fh
  00f3: 43 e7 80  or    reg[NOT_USED],080h
  00f6: 70 ef     and   F,0efh
  00f8: 62 d0 00  mov   reg[CUR_PP],000h
  00fb: 50 02     mov   A,002h
  00fd: 57 c4     mov   X,0c4h
  00ff: 08        push  A
  0100: 28        romx
  0101: 53 ed     mov   [__r0],A
  0103: 18        pop   A
  0104: 75        inc   X
  0105: 09 00     adc   A,000h
  0107: 28        romx
  0108: 4b        swap  A,X
  0109: 51 ed     mov   A,[__r0]
  010b: 80 04     jmp   0110h
  010d: 75        inc   X
  010e: 09 00     adc   A,000h
  0110: 62 e3 00  mov   reg[RES_WDT],000h
  0113: 08        push  A
  0114: 28        romx
  0115: 60 d5     mov   reg[MVW_PP],A
  0117: 74        inc   A
  0118: a0 4b     jz    0164h
  011a: 18        pop   A
  011b: 75        inc   X
  011c: 09 00     adc   A,000h
  011e: 08        push  A
  011f: 28        romx
  0120: 53 ed     mov   [__r0],A
  0122: 18        pop   A
  0123: 75        inc   X
  0124: 09 00     adc   A,000h
  0126: 08        push  A
  0127: 28        romx
  0128: a0 1c     jz    0145h
  012a: 53 ec     mov   [__r1],A
  012c: 18        pop   A
  012d: 75        inc   X
  012e: 09 00     adc   A,000h
  0130: 08        push  A
  0131: 28        romx
  0132: 3f ed     mvi   [[__r0]++],A
  0134: 47 ed ff  tst   [__r0],0ffh
  0137: b0 06     jnz   013eh
  0139: 5d d5     mov   A,reg[MVW_PP]
  013b: 74        inc   A
  013c: 60 d5     mov   reg[MVW_PP],A
  013e: 18        pop   A
  013f: 7a ec     dec   [__r1]
  0141: bf eb     jnz   012dh
  0143: 8f c9     jmp   010dh
  0145: 18        pop   A
  0146: 75        inc   X
  0147: 09 00     adc   A,000h
  0149: 08        push  A
  014a: 28        romx
  014b: 53 ec     mov   [__r1],A
  014d: 50 00     mov   A,000h
  014f: 3f ed     mvi   [[__r0]++],A
  0151: 47 ed ff  tst   [__r0],0ffh
  0154: b0 08     jnz   015dh
  0156: 5d d5     mov   A,reg[MVW_PP]
  0158: 74        inc   A
  0159: 60 d5     mov   reg[MVW_PP],A
  015b: 50 00     mov   A,000h
  015d: 7a ec     dec   [__r1]
  015f: bf ef     jnz   014fh
  0161: 18        pop   A
  0162: 8f aa     jmp   010dh
  0164: 18        pop   A
  0165: 71 10     or    F,010h
  0167: 43 e3 00  or    reg[VLT_CR],000h
  016a: 70 ef     and   F,0efh
  016c: 62 e0 00  mov   reg[INT_MSK0],000h
  016f: 71 10     or    F,010h
  0171: 62 e0 00  mov   reg[OSC_CR0],000h
  0174: 70 ef     and   F,0efh
  0176: 62 e2 00  mov   reg[INT_VC],000h
  0179: 7c 2b 1d  lcall _main
  017c: 8f ff     jmp   017ch
_bGetPowerSetting:
bGetPowerSetting:
  017e: 50 08     mov   A,008h
  0180: 7f        ret

main.c:avDisplayKeypress:
  01a0:           db    002h, 014h, 015h, 002h, 015h, 013h ; literal

main.c:avDisplayKeyStringComplete:
  01a6:           db    017h, 003h, 014h, 016h, 004h, 013h ; literal

main.c:avDisplaySuccess:
  01ac:           db    003h, 014h, 016h, 004h, 013h, 016h, 003h, 014h, 016h, 004h, 013h ; literal

main.c:avDisplayFailure:
  01b7:           db    017h, 005h, 014h, 016h, 013h, 016h, 014h, 016h, 013h, 016h, 014h, 016h, 013h, 016h, 006h ; literal

main.c:avDisplayAccessDenied:
  01c6:           db    017h, 005h, 014h, 016h, 013h, 016h, 014h, 016h, 013h, 018h, 006h ; literal

main.c:avDisplayPassageMode:
  01d1:           db    003h, 016h, 004h ; literal

main.c:avDisplayLockout:
  01d4:           db    012h, 016h, 013h, 01bh ; literal

main.c:avDisplayLowBattery:
  01d8:           db    011h, 017h, 005h, 012h, 016h, 006h, 013h, 016h ; literal
  01e0:           db    005h, 012h, 016h, 006h, 013h, 016h, 005h, 012h, 016h, 006h, 013h, 016h, 005h, 012h, 016h, 006h ; literal
  01f0:           db    013h, 018h, 011h ; literal

main.c:avDisplayBlackoutMode:
  01f2:           db    011h, 017h, 005h, 012h, 019h, 013h, 016h, 012h, 019h, 006h, 013h, 016h, 012h, 019h ; literal
  0200:           db    013h, 016h, 012h, 019h, 013h, 000h ; literal

main.c:avDisplayProgrammingModeEntered:
  0205:           db    000h, 012h, 016h, 001h, 013h, 015h, 000h, 012h, 016h, 001h, 013h ; literal
  0210:           db    015h, 000h, 012h, 016h, 001h, 013h, 012h ; literal

main.c:avDisplayLockoutOccurred:
  0216:           db    012h, 015h, 013h, 015h, 012h, 015h, 013h, 015h, 012h, 015h ; literal
  0220:           db    013h, 015h, 012h, 015h, 013h, 015h, 012h, 015h, 013h, 015h, 012h, 015h, 013h, 015h, 012h, 015h ; literal
  0230:           db    013h, 015h, 003h ; literal

main.c:avDisplayGreenFlash:
  0232:           db    003h, 019h, 004h ; literal

main.c:avDisplayRedFlash:
  0235:           db    005h, 019h, 006h ; literal

main.c:avDisplayYellowFlash:
  0238:           db    000h, 019h, 001h ; literal

main.c:keys:
  023b:           db    031h, 032h, 033h, 034h, 035h, 036h, 037h, 038h, 039h, 030h ; literal

main.c:leds:
  0245:           db    012h, 013h, 005h, 006h, 000h, 001h, 003h, 004h, 007h, 008h, 009h ; literal
  0250:           db    00ah, 00bh, 00ch, 00dh, 00eh, 00fh, 010h, 036h ; literal

_pwmEntriesMotor:
  0257:           db    036h, 030h, 071h, 034h, 0c3h, 074h, 033h, 056h, 077h ; literal
  0260:           db    031h, 0e9h, 07bh, 030h, 07ch, 07fh, 02fh, 00fh, 082h, 02dh, 0a2h, 086h, 02ch, 035h, 08bh, 02ah ; literal
  0270:           db    0c8h, 08fh, 029h, 05bh, 094h, 027h, 0eeh, 09ah, 026h, 081h, 09fh, 025h, 014h, 0a5h, 023h, 0a7h ; literal
  0280:           db    0ach, 022h, 039h, 0b3h, 020h, 0cch, 0bah, 01fh, 05fh, 0bah, 01dh, 0f2h, 0bah, 000h, 000h, 0bah ; literal

main.c:motorBehavior:
  0290:           db    000h, 050h, 000h, 0fah, 000h, 000h, 050h, 000h, 0fah, 001h, 039h, 038h, 039h, 038h, 000h, 000h ; literal
  02a0:           db    000h, 000h, 000h, 031h, 032h, 033h, 034h, 000h, 000h, 000h, 000h, 000h, 031h, 032h, 033h, 034h ; literal
  02b0:           db    035h, 036h, 000h, 000h, 000h, 032h, 030h, 031h, 030h, 02fh, 030h, 036h, 02fh, 030h, 034h, 02eh ; literal
  02c0:           db    030h, 030h, 031h, 000h, 02eh ; literal

__lit_end:
__func_lit_start:
  02c4:           db    02eh, 090h, 023h, 073h, 023h, 07ah, 023h, 081h, 023h, 088h, 023h, 08fh ; literal
  02d0:           db    023h, 096h, 023h, 09dh, 023h, 0a4h, 023h, 0abh, 023h, 0b2h, 023h, 0b9h, 023h, 0c0h, 023h, 0c7h ; literal
  02e0:           db    023h, 0ceh, 023h, 0d5h, 023h, 0dch, 023h, 0e3h, 023h, 0eah, 023h, 0f0h, 024h, 00eh, 023h, 0f7h ; literal
  02f0:           db    024h, 015h, 024h, 02dh, 024h, 045h, 024h, 05dh, 024h, 075h, 024h, 08dh, 024h, 0a5h, 024h, 0bdh ; literal

__func_lit_end:
LoadConfigTBL_emtek_cy8c24894:
  0300:           db    070h, 0efh, 062h, 060h, 001h, 062h, 066h, 000h, 062h, 061h, 000h, 062h, 063h, 010h, 062h, 065h ; configuration table
  0310:           db    000h, 062h, 0e6h, 000h, 062h, 0e7h, 042h, 062h, 056h, 000h, 062h, 057h, 000h, 062h, 058h, 000h ; configuration table
  0320:           db    062h, 059h, 000h, 062h, 05ah, 000h, 062h, 05bh, 000h, 062h, 05ch, 000h, 062h, 05dh, 000h, 062h ; configuration table
  0330:           db    05eh, 000h, 062h, 05fh, 000h, 062h, 04fh, 000h, 062h, 04eh, 000h, 062h, 051h, 000h, 062h, 050h ; configuration table
  0340:           db    000h, 062h, 053h, 000h, 062h, 052h, 000h, 062h, 055h, 000h, 062h, 054h, 000h, 062h, 0d6h, 000h ; configuration table
  0350:           db    062h, 0b0h, 000h, 062h, 0b1h, 000h, 062h, 0b2h, 000h, 062h, 0b3h, 033h, 062h, 0b4h, 033h, 062h ; configuration table
  0360:           db    0b5h, 048h, 062h, 0b6h, 008h, 062h, 04ah, 000h, 062h, 04bh, 000h, 062h, 04ch, 000h, 062h, 080h ; configuration table
  0370:           db    088h, 062h, 081h, 000h, 062h, 082h, 020h, 062h, 083h, 0f0h, 062h, 090h, 090h, 062h, 091h, 000h ; configuration table
  0380:           db    062h, 092h, 060h, 062h, 093h, 0f0h, 062h, 023h, 000h, 062h, 021h, 000h, 062h, 022h, 001h, 062h ; configuration table
  0390:           db    071h, 0feh, 062h, 072h, 021h, 062h, 073h, 020h, 062h, 070h, 000h, 062h, 027h, 000h, 062h, 025h ; configuration table
  03a0:           db    07dh, 062h, 026h, 028h, 062h, 02bh, 000h, 062h, 029h, 0b8h, 062h, 02ah, 000h, 062h, 02fh, 004h ; configuration table
  03b0:           db    062h, 02dh, 00bh, 062h, 02eh, 000h, 071h, 010h, 062h, 061h, 000h, 062h, 069h, 000h, 062h, 060h ; configuration table
  03c0:           db    000h, 062h, 062h, 000h, 062h, 067h, 033h, 062h, 068h, 000h, 062h, 063h, 000h, 062h, 066h, 000h ; configuration table
  03d0:           db    062h, 064h, 000h, 062h, 064h, 000h, 062h, 0fdh, 080h, 062h, 0c4h, 000h, 062h, 0c5h, 000h, 062h ; configuration table
  03e0:           db    0c6h, 000h, 062h, 0c7h, 000h, 062h, 0d1h, 000h, 062h, 0d3h, 000h, 062h, 0d0h, 000h, 062h, 0d2h ; configuration table
  03f0:           db    000h, 062h, 0e1h, 07fh, 062h, 0e2h, 000h, 062h, 0dfh, 0ffh, 062h, 0deh, 002h, 062h, 0ddh, 000h ; configuration table
  0400:           db    062h, 0d8h, 000h, 062h, 0d9h, 000h, 062h, 0dah, 000h, 062h, 0dbh, 000h, 062h, 0ech, 000h, 062h ; configuration table
  0410:           db    0edh, 000h, 062h, 0e7h, 048h, 062h, 0c1h, 000h, 062h, 020h, 031h, 062h, 021h, 015h, 062h, 022h ; configuration table
  0420:           db    040h, 062h, 024h, 021h, 062h, 025h, 015h, 062h, 026h, 045h, 062h, 028h, 000h, 062h, 029h, 005h ; configuration table
  0430:           db    062h, 02ah, 040h, 062h, 02ch, 020h, 062h, 02dh, 035h, 062h, 02eh, 040h, 070h, 0efh, 071h, 010h ; configuration table
  0440:           db    062h, 000h, 000h, 062h, 001h, 0ffh, 070h, 0efh, 062h, 003h, 0ffh, 062h, 002h, 000h, 071h, 010h ; configuration table
  0450:           db    062h, 002h, 000h, 062h, 003h, 000h, 070h, 0efh, 062h, 001h, 000h, 071h, 010h, 062h, 004h, 03ch ; configuration table
  0460:           db    062h, 005h, 0c0h, 070h, 0efh, 062h, 007h, 0c0h, 062h, 006h, 000h, 071h, 010h, 062h, 006h, 000h ; configuration table
  0470:           db    062h, 007h, 000h, 070h, 0efh, 062h, 005h, 000h, 071h, 010h, 062h, 008h, 003h, 062h, 009h, 0fch ; configuration table
  0480:           db    070h, 0efh, 062h, 00bh, 0fch, 062h, 00ah, 000h, 071h, 010h, 062h, 00ah, 000h, 062h, 00bh, 000h ; configuration table
  0490:           db    070h, 0efh, 062h, 009h, 000h, 071h, 010h, 062h, 00ch, 0bfh, 062h, 00dh, 000h, 070h, 0efh, 062h ; configuration table
  04a0:           db    00fh, 000h, 062h, 00eh, 000h, 071h, 010h, 062h, 00eh, 000h, 062h, 00fh, 003h, 070h, 0efh, 062h ; configuration table
  04b0:           db    00dh, 003h, 071h, 010h, 062h, 010h, 000h, 062h, 011h, 010h, 070h, 0efh, 062h, 013h, 010h, 062h ; configuration table
  04c0:           db    012h, 000h, 071h, 010h, 062h, 012h, 000h, 062h, 013h, 00fh, 070h, 0efh, 062h, 011h, 00fh, 071h ; configuration table
  04d0:           db    010h, 062h, 014h, 05eh, 062h, 015h, 0a1h, 070h, 0efh, 062h, 017h, 0a1h, 062h, 016h, 000h, 071h ; configuration table
  04e0:           db    010h, 062h, 016h, 000h, 062h, 017h, 000h, 070h, 0efh, 062h, 015h, 000h, 071h, 010h, 062h, 01ch ; configuration table
  04f0:           db    000h, 062h, 01dh, 081h, 070h, 0efh, 062h, 01fh, 081h, 062h, 01eh, 000h, 071h, 010h, 062h, 01eh ; configuration table
  0500:           db    000h, 062h, 01fh, 000h, 070h, 0efh, 062h, 01dh, 000h, 070h, 0efh, 07fh, 055h ; configuration table

_LoadConfigInit:
LoadConfigInit:
  050c:           db    055h, 000h, 000h, 055h, 001h, 000h, 055h, 002h, 000h, 055h, 003h, 000h, 07ch, 005h, 01ch, 07fh ; configuration table

_LoadConfig_emtek_cy8c24894:
LoadConfig_emtek_cy8c24894:
  051c:           db    07ch, 003h, 000h, 070h, 0efh, 07fh ; configuration table

__psoc_config_end:
Vbat_En_On:
_Vbat_En_On:
  0522: 50 01     mov   A,001h
  0524: 80 03     jmp   Vbat_En_Switch
_Vbat_En_Stop:
Vbat_En_Start:
Vbat_En_Stop:
Vbat_En_Off:
_Vbat_En_Start:
_Vbat_En_Off:
  0526: 50 00     mov   A,000h
Vbat_En_Switch:
_Vbat_En_Switch:
  0528: 62 d0 00  mov   reg[CUR_PP],000h
  052b: 29 00     or    A,000h
  052d: a0 06     jz    0534h
  052f: 2e 00 20  or    [__data_start],020h ; or possibly _fillerBuffer1, _globalSystemFlags
  0532: 80 04     jmp   0537h
  0534: 26 00 df  and   [__data_start],0dfh ; or possibly _fillerBuffer1, _globalSystemFlags
  0537: 51 00     mov   A,[__data_start] ; or possibly _fillerBuffer1, _globalSystemFlags
  0539: 60 04     mov   reg[PRT1DR],A
  053b: 70 3f     and   F,03fh ; Paging mode changed from 3 to 0
  053d: 71 c0     or    F,0c0h ; Paging mode changed from 0 to 3
  053f: 7f        ret

_Vbat_En_Invert:
Vbat_En_Invert:
  0540: 62 d0 00  mov   reg[CUR_PP],000h
  0543: 36 00 20  xor   [__data_start],020h ; or possibly _fillerBuffer1, _globalSystemFlags
  0546: 51 00     mov   A,[__data_start] ; or possibly _fillerBuffer1, _globalSystemFlags
  0548: 60 04     mov   reg[PRT1DR],A
  054a: 70 3f     and   F,03fh ; Paging mode changed from 3 to 0
  054c: 71 c0     or    F,0c0h ; Paging mode changed from 0 to 3
  054e: 7f        ret

_Vbat_En_GetState:
Vbat_En_GetState:
  054f: 62 d0 00  mov   reg[CUR_PP],000h
  0552: 51 00     mov   A,[__data_start] ; or possibly _fillerBuffer1, _globalSystemFlags
  0554: 21 20     and   A,020h
  0556: a0 03     jz    055ah
  0558: 50 01     mov   A,001h
  055a: 70 3f     and   F,03fh ; Paging mode changed from 3 to 0
  055c: 71 c0     or    F,0c0h ; Paging mode changed from 0 to 3
  055e: 7f        ret

Timer16_EnableInt:
_Timer16_EnableInt:
  055f: 43 e1 08  or    reg[INT_MSK1],008h
  0562: 7f        ret

Timer16_DisableInt:
_Timer16_DisableInt:
  0563: 41 e1 f7  and   reg[INT_MSK1],0f7h
  0566: 7f        ret

Timer16_Start:
_Timer16_Start:
  0567: 43 2b 01  or    reg[DCB02CR0],001h
  056a: 7f        ret

Timer16_Stop:
_Timer16_Stop:
  056b: 41 2b fe  and   reg[DCB02CR0],0feh
  056e: 7f        ret

Timer16_WritePeriod:
_Timer16_WritePeriod:
  056f: 60 29     mov   reg[DCB02DR1],A
  0571: 5b        mov   A,X
  0572: 60 2d     mov   reg[DCB03DR1],A
  0574: 7f        ret

Timer16_WriteCompareValue:
_Timer16_WriteCompareValue:
  0575: 60 2a     mov   reg[DCB02DR2],A
  0577: 5b        mov   A,X
  0578: 60 2e     mov   reg[DCB03DR2],A
  057a: 7f        ret

_Timer16_wReadCompareValue:
_wTimer16_ReadCompareValue:
wTimer16_ReadCompareValue:
Timer16_wReadCompareValue:
  057b: 5d 2e     mov   A,reg[DCB03DR2]
  057d: 5c        mov   X,A
  057e: 5d 2a     mov   A,reg[DCB02DR2]
  0580: 7f        ret

Timer16_wReadTimerSaveCV:
wTimer16_ReadCounter:
_Timer16_wReadTimerSaveCV:
_wTimer16_ReadCounter:
wTimer16_ReadTimerSaveCV:
_wTimer16_ReadTimerSaveCV:
  0581: 4f        mov   X,SP
  0582: 38 03     add   SP,003h
  0584: 5d 2b     mov   A,reg[DCB02CR0]
  0586: 08        push  A
  0587: 5d 2a     mov   A,reg[DCB02DR2]
  0589: 08        push  A
  058a: 5d 2e     mov   A,reg[DCB03DR2]
  058c: 08        push  A
  058d: 5d 28     mov   A,reg[DCB02DR0]
  058f: 5d 2e     mov   A,reg[DCB03DR2]
  0591: 54 01     mov   [X+_Port_2_Data_SHADE],A
  0593: 5d 2a     mov   A,reg[DCB02DR2]
  0595: 54 02     mov   [X+_Port_3_Data_SHADE],A
  0597: 50 00     mov   A,000h
  0599: 49 f7 01  tst   reg[CPU_F],001h
  059c: a0 03     jz    05a0h
  059e: 50 01     mov   A,001h
  05a0: 54 00     mov   [X+__data_start],A ; or possibly _fillerBuffer1, _globalSystemFlags
  05a2: 70 fe     and   F,0feh
  05a4: 41 2b fe  and   reg[DCB02CR0],0feh
  05a7: 18        pop   A
  05a8: 60 2e     mov   reg[DCB03DR2],A
  05aa: 18        pop   A
  05ab: 60 2a     mov   reg[DCB02DR2],A
  05ad: 18        pop   A
  05ae: 60 2b     mov   reg[DCB02CR0],A
  05b0: 18        pop   A
  05b1: 20        pop   X
  05b2: 70 3f     and   F,03fh ; Paging mode changed from 3 to 0
  05b4: 71 c0     or    F,0c0h ; Paging mode changed from 0 to 3
  05b6: 7e        reti

_wTimer16_CaptureCounter:
_wTimer16_ReadTimer:
_Timer16_wReadTimer:
wTimer16_CaptureCounter:
wTimer16_ReadTimer:
Timer16_wReadTimer:
  05b7: 5d 28     mov   A,reg[DCB02DR0]
  05b9: 5d 2e     mov   A,reg[DCB03DR2]
  05bb: 5c        mov   X,A
  05bc: 5d 2a     mov   A,reg[DCB02DR2]
  05be: 7f        ret

_Sounder_On:
Sounder_On:
  05bf: 50 01     mov   A,001h
  05c1: 80 03     jmp   _Sounder_Switch
_Sounder_Start:
Sounder_Stop:
Sounder_Off:
_Sounder_Stop:
_Sounder_Off:
Sounder_Start:
  05c3: 50 00     mov   A,000h
_Sounder_Switch:
Sounder_Switch:
  05c5: 62 d0 00  mov   reg[CUR_PP],000h
  05c8: 29 00     or    A,000h
  05ca: a0 06     jz    05d1h
  05cc: 2e 02 08  or    [_Port_3_Data_SHADE],008h
  05cf: 80 04     jmp   05d4h
  05d1: 26 02 f7  and   [_Port_3_Data_SHADE],0f7h
  05d4: 51 02     mov   A,[_Port_3_Data_SHADE]
  05d6: 60 0c     mov   reg[PRT3DR],A
  05d8: 70 3f     and   F,03fh ; Paging mode changed from 3 to 0
  05da: 71 c0     or    F,0c0h ; Paging mode changed from 0 to 3
  05dc: 7f        ret

Sounder_Invert:
_Sounder_Invert:
  05dd: 62 d0 00  mov   reg[CUR_PP],000h
  05e0: 36 02 08  xor   [_Port_3_Data_SHADE],008h
  05e3: 51 02     mov   A,[_Port_3_Data_SHADE]
  05e5: 60 0c     mov   reg[PRT3DR],A
  05e7: 70 3f     and   F,03fh ; Paging mode changed from 3 to 0
  05e9: 71 c0     or    F,0c0h ; Paging mode changed from 0 to 3
  05eb: 7f        ret

Sounder_GetState:
_Sounder_GetState:
  05ec: 62 d0 00  mov   reg[CUR_PP],000h
  05ef: 51 02     mov   A,[_Port_3_Data_SHADE]
  05f1: 21 08     and   A,008h
  05f3: a0 03     jz    05f7h
  05f5: 50 01     mov   A,001h
  05f7: 70 3f     and   F,03fh ; Paging mode changed from 3 to 0
  05f9: 71 c0     or    F,0c0h ; Paging mode changed from 0 to 3
  05fb: 7f        ret

PWM8_EnableInt:
_PWM8_EnableInt:
  05fc: 43 e1 02  or    reg[INT_MSK1],002h
  05ff: 7f        ret

_PWM8_DisableInt:
PWM8_DisableInt:
  0600: 41 e1 fd  and   reg[INT_MSK1],0fdh
  0603: 7f        ret

_PWM8_Start:
PWM8_Start:
  0604: 43 27 01  or    reg[DBB01CR0],001h
  0607: 7f        ret

PWM8_Stop:
_PWM8_Stop:
  0608: 41 27 fe  and   reg[DBB01CR0],0feh
  060b: 7f        ret

_PWM8_WritePeriod:
PWM8_WritePeriod:
  060c: 60 25     mov   reg[DBB01DR1],A
  060e: 7f        ret

PWM8_WritePulseWidth:
_PWM8_WritePulseWidth:
  060f: 60 26     mov   reg[DBB01DR2],A
  0611: 7f        ret

_PWM8_bReadPulseWidth:
_bPWM8_ReadPulseWidth:
bPWM8_ReadPulseWidth:
PWM8_bReadPulseWidth:
  0612: 5d 26     mov   A,reg[DBB01DR2]
  0614: 7f        ret

bPWM8_ReadCounter:
PWM8_bReadCounter:
_bPWM8_ReadCounter:
_PWM8_bReadCounter:
  0615: 4f        mov   X,SP
  0616: 5d 26     mov   A,reg[DBB01DR2]
  0618: 08        push  A
  0619: 41 27 fe  and   reg[DBB01CR0],0feh
  061c: 71 10     or    F,010h
  061e: 5d 25     mov   A,reg[DBB01IN]
  0620: 08        push  A
  0621: 62 25 00  mov   reg[DBB01IN],000h
  0624: 70 ef     and   F,0efh
  0626: 5d 24     mov   A,reg[DBB01DR0]
  0628: 5d 26     mov   A,reg[DBB01DR2]
  062a: 08        push  A
  062b: 52 00     mov   A,[X+__data_start] ; or possibly _fillerBuffer1, _globalSystemFlags
  062d: 60 26     mov   reg[DBB01DR2],A
  062f: 71 10     or    F,010h
  0631: 52 01     mov   A,[X+_Port_2_Data_SHADE]
  0633: 60 25     mov   reg[DBB01IN],A
  0635: 70 ef     and   F,0efh
  0637: 43 27 01  or    reg[DBB01CR0],001h
  063a: 18        pop   A
  063b: 38 fe     add   SP,0feh
  063d: 70 3f     and   F,03fh ; Paging mode changed from 3 to 0
  063f: 71 c0     or    F,0c0h ; Paging mode changed from 0 to 3
  0641: 7f        ret

_PGA_Start:
PGA_SetPower:
_PGA_SetPower:
PGA_Start:
  0642: 21 03     and   A,003h
  0644: 4f        mov   X,SP
  0645: 08        push  A
  0646: 5d 73     mov   A,reg[ACB00CR2]
  0648: 21 fc     and   A,0fch
  064a: 2b 00     or    A,[X+000h] ; or possibly Port_1_Data_SHADE, NO_SHADOW, _NO_SHADOW, _Port_1_Data_SHADE, __data_start, _fillerBuffer1, _globalSystemFlags
  064c: 60 73     mov   reg[ACB00CR2],A
  064e: 18        pop   A
  064f: 70 3f     and   F,03fh ; Paging mode changed from 3 to 0
  0651: 71 c0     or    F,0c0h ; Paging mode changed from 0 to 3
  0653: 7f        ret

PGA_SetGain:
_PGA_SetGain:
  0654: 21 fc     and   A,0fch
  0656: 4f        mov   X,SP
  0657: 08        push  A
  0658: 5d 71     mov   A,reg[ACB00CR0]
  065a: 21 07     and   A,007h
  065c: 48 00 04  tst   [X+000h],004h ; or possibly Port_1_Data_SHADE, NO_SHADOW, _NO_SHADOW, _Port_1_Data_SHADE, __data_start, _fillerBuffer1, _globalSystemFlags
  065f: b0 0e     jnz   066eh
  0661: 41 70 fe  and   reg[ACB00CR3],0feh
  0664: 2b 00     or    A,[X+000h] ; or possibly Port_1_Data_SHADE, NO_SHADOW, _NO_SHADOW, _Port_1_Data_SHADE, __data_start, _fillerBuffer1, _globalSystemFlags
  0666: 60 71     mov   reg[ACB00CR0],A
  0668: 18        pop   A
  0669: 70 3f     and   F,03fh ; Paging mode changed from 3 to 0
  066b: 71 c0     or    F,0c0h ; Paging mode changed from 0 to 3
  066d: 7f        ret

  066e: 27 00 18  and   [X+000h],018h ; or possibly Port_1_Data_SHADE, NO_SHADOW, _NO_SHADOW, _Port_1_Data_SHADE, __data_start, _fillerBuffer1, _globalSystemFlags
  0671: 2b 00     or    A,[X+000h] ; or possibly Port_1_Data_SHADE, NO_SHADOW, _NO_SHADOW, _Port_1_Data_SHADE, __data_start, _fillerBuffer1, _globalSystemFlags
  0673: 60 71     mov   reg[ACB00CR0],A
  0675: 43 70 01  or    reg[ACB00CR3],001h
  0678: 18        pop   A
  0679: 70 3f     and   F,03fh ; Paging mode changed from 3 to 0
  067b: 71 c0     or    F,0c0h ; Paging mode changed from 0 to 3
  067d: 7f        ret

PGA_Stop:
_PGA_Stop:
  067e: 41 73 fc  and   reg[ACB00CR2],0fch
  0681: 7f        ret

Motor_B_LS_On:
_Motor_B_LS_On:
  0682: 50 01     mov   A,001h
  0684: 80 03     jmp   _Motor_B_LS_Switch
Motor_B_LS_Start:
_Motor_B_LS_Stop:
Motor_B_LS_Off:
_Motor_B_LS_Start:
_Motor_B_LS_Off:
Motor_B_LS_Stop:
  0686: 50 00     mov   A,000h
_Motor_B_LS_Switch:
Motor_B_LS_Switch:
  0688: 62 d0 00  mov   reg[CUR_PP],000h
  068b: 29 00     or    A,000h
  068d: a0 06     jz    0694h
  068f: 2e 03 10  or    [Port_5_Data_SHADE],010h
  0692: 80 04     jmp   0697h
  0694: 26 03 ef  and   [Port_5_Data_SHADE],0efh
  0697: 51 03     mov   A,[Port_5_Data_SHADE]
  0699: 60 14     mov   reg[PRT5DR],A
  069b: 70 3f     and   F,03fh ; Paging mode changed from 3 to 0
  069d: 71 c0     or    F,0c0h ; Paging mode changed from 0 to 3
  069f: 7f        ret

_Motor_B_LS_Invert:
Motor_B_LS_Invert:
  06a0: 62 d0 00  mov   reg[CUR_PP],000h
  06a3: 36 03 10  xor   [Port_5_Data_SHADE],010h
  06a6: 51 03     mov   A,[Port_5_Data_SHADE]
  06a8: 60 14     mov   reg[PRT5DR],A
  06aa: 70 3f     and   F,03fh ; Paging mode changed from 3 to 0
  06ac: 71 c0     or    F,0c0h ; Paging mode changed from 0 to 3
  06ae: 7f        ret

Motor_B_LS_GetState:
_Motor_B_LS_GetState:
  06af: 62 d0 00  mov   reg[CUR_PP],000h
  06b2: 51 03     mov   A,[Port_5_Data_SHADE]
  06b4: 21 10     and   A,010h
  06b6: a0 03     jz    06bah
  06b8: 50 01     mov   A,001h
  06ba: 70 3f     and   F,03fh ; Paging mode changed from 3 to 0
  06bc: 71 c0     or    F,0c0h ; Paging mode changed from 0 to 3
  06be: 7f        ret

_Motor_B_HS_On:
Motor_B_HS_On:
  06bf: 50 01     mov   A,001h
  06c1: 80 03     jmp   Motor_B_HS_Switch
Motor_B_HS_Stop:
_Motor_B_HS_Off:
_Motor_B_HS_Start:
_Motor_B_HS_Stop:
Motor_B_HS_Off:
Motor_B_HS_Start:
  06c3: 50 00     mov   A,000h
Motor_B_HS_Switch:
_Motor_B_HS_Switch:
  06c5: 62 d0 00  mov   reg[CUR_PP],000h
  06c8: 29 00     or    A,000h
  06ca: a0 06     jz    06d1h
  06cc: 2e 03 08  or    [Port_5_Data_SHADE],008h
  06cf: 80 04     jmp   06d4h
  06d1: 26 03 f7  and   [Port_5_Data_SHADE],0f7h
  06d4: 51 03     mov   A,[Port_5_Data_SHADE]
  06d6: 60 14     mov   reg[PRT5DR],A
  06d8: 70 3f     and   F,03fh ; Paging mode changed from 3 to 0
  06da: 71 c0     or    F,0c0h ; Paging mode changed from 0 to 3
  06dc: 7f        ret

_Motor_B_HS_Invert:
Motor_B_HS_Invert:
  06dd: 62 d0 00  mov   reg[CUR_PP],000h
  06e0: 36 03 08  xor   [Port_5_Data_SHADE],008h
  06e3: 51 03     mov   A,[Port_5_Data_SHADE]
  06e5: 60 14     mov   reg[PRT5DR],A
  06e7: 70 3f     and   F,03fh ; Paging mode changed from 3 to 0
  06e9: 71 c0     or    F,0c0h ; Paging mode changed from 0 to 3
  06eb: 7f        ret

Motor_B_HS_GetState:
_Motor_B_HS_GetState:
  06ec: 62 d0 00  mov   reg[CUR_PP],000h
  06ef: 51 03     mov   A,[Port_5_Data_SHADE]
  06f1: 21 08     and   A,008h
  06f3: a0 03     jz    06f7h
  06f5: 50 01     mov   A,001h
  06f7: 70 3f     and   F,03fh ; Paging mode changed from 3 to 0
  06f9: 71 c0     or    F,0c0h ; Paging mode changed from 0 to 3
  06fb: 7f        ret

_Motor_A_LS_On:
Motor_A_LS_On:
  06fc: 50 01     mov   A,001h
  06fe: 80 03     jmp   _Motor_A_LS_Switch
_Motor_A_LS_Off:
_Motor_A_LS_Start:
Motor_A_LS_Start:
Motor_A_LS_Off:
Motor_A_LS_Stop:
_Motor_A_LS_Stop:
  0700: 50 00     mov   A,000h
_Motor_A_LS_Switch:
Motor_A_LS_Switch:
  0702: 62 d0 00  mov   reg[CUR_PP],000h
  0705: 29 00     or    A,000h
  0707: a0 06     jz    070eh
  0709: 2e 03 02  or    [Port_5_Data_SHADE],002h
  070c: 80 04     jmp   0711h
  070e: 26 03 fd  and   [Port_5_Data_SHADE],0fdh
  0711: 51 03     mov   A,[Port_5_Data_SHADE]
  0713: 60 14     mov   reg[PRT5DR],A
  0715: 70 3f     and   F,03fh ; Paging mode changed from 3 to 0
  0717: 71 c0     or    F,0c0h ; Paging mode changed from 0 to 3
  0719: 7f        ret

Motor_A_LS_Invert:
_Motor_A_LS_Invert:
  071a: 62 d0 00  mov   reg[CUR_PP],000h
  071d: 36 03 02  xor   [Port_5_Data_SHADE],002h
  0720: 51 03     mov   A,[Port_5_Data_SHADE]
  0722: 60 14     mov   reg[PRT5DR],A
  0724: 70 3f     and   F,03fh ; Paging mode changed from 3 to 0
  0726: 71 c0     or    F,0c0h ; Paging mode changed from 0 to 3
  0728: 7f        ret

_Motor_A_LS_GetState:
Motor_A_LS_GetState:
  0729: 62 d0 00  mov   reg[CUR_PP],000h
  072c: 51 03     mov   A,[Port_5_Data_SHADE]
  072e: 21 02     and   A,002h
  0730: a0 03     jz    0734h
  0732: 50 01     mov   A,001h
  0734: 70 3f     and   F,03fh ; Paging mode changed from 3 to 0
  0736: 71 c0     or    F,0c0h ; Paging mode changed from 0 to 3
  0738: 7f        ret

_Motor_A_HS_On:
Motor_A_HS_On:
  0739: 50 01     mov   A,001h
  073b: 80 03     jmp   Motor_A_HS_Switch
_Motor_A_HS_Start:
_Motor_A_HS_Off:
Motor_A_HS_Start:
Motor_A_HS_Off:
_Motor_A_HS_Stop:
Motor_A_HS_Stop:
  073d: 50 00     mov   A,000h
Motor_A_HS_Switch:
_Motor_A_HS_Switch:
  073f: 62 d0 00  mov   reg[CUR_PP],000h
  0742: 29 00     or    A,000h
  0744: a0 06     jz    074bh
  0746: 2e 03 04  or    [Port_5_Data_SHADE],004h
  0749: 80 04     jmp   074eh
  074b: 26 03 fb  and   [Port_5_Data_SHADE],0fbh
  074e: 51 03     mov   A,[Port_5_Data_SHADE]
  0750: 60 14     mov   reg[PRT5DR],A
  0752: 70 3f     and   F,03fh ; Paging mode changed from 3 to 0
  0754: 71 c0     or    F,0c0h ; Paging mode changed from 0 to 3
  0756: 7f        ret

_Motor_A_HS_Invert:
Motor_A_HS_Invert:
  0757: 62 d0 00  mov   reg[CUR_PP],000h
  075a: 36 03 04  xor   [Port_5_Data_SHADE],004h
  075d: 51 03     mov   A,[Port_5_Data_SHADE]
  075f: 60 14     mov   reg[PRT5DR],A
  0761: 70 3f     and   F,03fh ; Paging mode changed from 3 to 0
  0763: 71 c0     or    F,0c0h ; Paging mode changed from 0 to 3
  0765: 7f        ret

_Motor_A_HS_GetState:
Motor_A_HS_GetState:
  0766: 62 d0 00  mov   reg[CUR_PP],000h
  0769: 51 03     mov   A,[Port_5_Data_SHADE]
  076b: 21 04     and   A,004h
  076d: a0 03     jz    0771h
  076f: 50 01     mov   A,001h
  0771: 70 3f     and   F,03fh ; Paging mode changed from 3 to 0
  0773: 71 c0     or    F,0c0h ; Paging mode changed from 0 to 3
  0775: 7f        ret

Lever_SW_2_On:
_Lever_SW_2_On:
  0776: 50 01     mov   A,001h
  0778: 80 03     jmp   _Lever_SW_2_Switch
_Lever_SW_2_Stop:
_Lever_SW_2_Off:
Lever_SW_2_Stop:
Lever_SW_2_Start:
Lever_SW_2_Off:
_Lever_SW_2_Start:
  077a: 50 00     mov   A,000h
_Lever_SW_2_Switch:
Lever_SW_2_Switch:
  077c: 62 d0 00  mov   reg[CUR_PP],000h
  077f: 29 00     or    A,000h
  0781: a0 06     jz    0788h
  0783: 2e 02 02  or    [_Port_3_Data_SHADE],002h
  0786: 80 04     jmp   078bh
  0788: 26 02 fd  and   [_Port_3_Data_SHADE],0fdh
  078b: 51 02     mov   A,[_Port_3_Data_SHADE]
  078d: 60 0c     mov   reg[PRT3DR],A
  078f: 70 3f     and   F,03fh ; Paging mode changed from 3 to 0
  0791: 71 c0     or    F,0c0h ; Paging mode changed from 0 to 3
  0793: 7f        ret

Lever_SW_2_Invert:
_Lever_SW_2_Invert:
  0794: 62 d0 00  mov   reg[CUR_PP],000h
  0797: 36 02 02  xor   [_Port_3_Data_SHADE],002h
  079a: 51 02     mov   A,[_Port_3_Data_SHADE]
  079c: 60 0c     mov   reg[PRT3DR],A
  079e: 70 3f     and   F,03fh ; Paging mode changed from 3 to 0
  07a0: 71 c0     or    F,0c0h ; Paging mode changed from 0 to 3
  07a2: 7f        ret

Lever_SW_2_GetState:
_Lever_SW_2_GetState:
  07a3: 62 d0 00  mov   reg[CUR_PP],000h
  07a6: 51 02     mov   A,[_Port_3_Data_SHADE]
  07a8: 21 02     and   A,002h
  07aa: a0 03     jz    07aeh
  07ac: 50 01     mov   A,001h
  07ae: 70 3f     and   F,03fh ; Paging mode changed from 3 to 0
  07b0: 71 c0     or    F,0c0h ; Paging mode changed from 0 to 3
  07b2: 7f        ret

Lever_SW_1_On:
_Lever_SW_1_On:
  07b3: 50 01     mov   A,001h
  07b5: 80 03     jmp   _Lever_SW_1_Switch
_Lever_SW_1_Off:
Lever_SW_1_Stop:
Lever_SW_1_Start:
Lever_SW_1_Off:
_Lever_SW_1_Start:
_Lever_SW_1_Stop:
  07b7: 50 00     mov   A,000h
_Lever_SW_1_Switch:
Lever_SW_1_Switch:
  07b9: 62 d0 00  mov   reg[CUR_PP],000h
  07bc: 29 00     or    A,000h
  07be: a0 06     jz    07c5h
  07c0: 2e 02 01  or    [_Port_3_Data_SHADE],001h
  07c3: 80 04     jmp   07c8h
  07c5: 26 02 fe  and   [_Port_3_Data_SHADE],0feh
  07c8: 51 02     mov   A,[_Port_3_Data_SHADE]
  07ca: 60 0c     mov   reg[PRT3DR],A
  07cc: 70 3f     and   F,03fh ; Paging mode changed from 3 to 0
  07ce: 71 c0     or    F,0c0h ; Paging mode changed from 0 to 3
  07d0: 7f        ret

_Lever_SW_1_Invert:
Lever_SW_1_Invert:
  07d1: 62 d0 00  mov   reg[CUR_PP],000h
  07d4: 36 02 01  xor   [_Port_3_Data_SHADE],001h
  07d7: 51 02     mov   A,[_Port_3_Data_SHADE]
  07d9: 60 0c     mov   reg[PRT3DR],A
  07db: 70 3f     and   F,03fh ; Paging mode changed from 3 to 0
  07dd: 71 c0     or    F,0c0h ; Paging mode changed from 0 to 3
  07df: 7f        ret

_Lever_SW_1_GetState:
Lever_SW_1_GetState:
  07e0: 62 d0 00  mov   reg[CUR_PP],000h
  07e3: 51 02     mov   A,[_Port_3_Data_SHADE]
  07e5: 21 01     and   A,001h
  07e7: a0 03     jz    07ebh
  07e9: 50 01     mov   A,001h
  07eb: 70 3f     and   F,03fh ; Paging mode changed from 3 to 0
  07ed: 71 c0     or    F,0c0h ; Paging mode changed from 0 to 3
  07ef: 7f        ret

_LED_Yellow_On:
LED_Yellow_On:
  07f0: 50 01     mov   A,001h
  07f2: 80 03     jmp   _LED_Yellow_Switch
LED_Yellow_Start:
LED_Yellow_Stop:
LED_Yellow_Off:
_LED_Yellow_Start:
_LED_Yellow_Stop:
_LED_Yellow_Off:
  07f4: 50 00     mov   A,000h
_LED_Yellow_Switch:
LED_Yellow_Switch:
  07f6: 62 d0 00  mov   reg[CUR_PP],000h
  07f9: 29 00     or    A,000h
  07fb: a0 06     jz    0802h
  07fd: 26 00 fb  and   [__data_start],0fbh ; or possibly _fillerBuffer1, _globalSystemFlags
  0800: 80 04     jmp   0805h
  0802: 2e 00 04  or    [__data_start],004h ; or possibly _fillerBuffer1, _globalSystemFlags
  0805: 51 00     mov   A,[__data_start] ; or possibly _fillerBuffer1, _globalSystemFlags
  0807: 60 04     mov   reg[PRT1DR],A
  0809: 70 3f     and   F,03fh ; Paging mode changed from 3 to 0
  080b: 71 c0     or    F,0c0h ; Paging mode changed from 0 to 3
  080d: 7f        ret

LED_Yellow_Invert:
_LED_Yellow_Invert:
  080e: 62 d0 00  mov   reg[CUR_PP],000h
  0811: 36 00 04  xor   [__data_start],004h ; or possibly _fillerBuffer1, _globalSystemFlags
  0814: 51 00     mov   A,[__data_start] ; or possibly _fillerBuffer1, _globalSystemFlags
  0816: 60 04     mov   reg[PRT1DR],A
  0818: 70 3f     and   F,03fh ; Paging mode changed from 3 to 0
  081a: 71 c0     or    F,0c0h ; Paging mode changed from 0 to 3
  081c: 7f        ret

LED_Yellow_GetState:
_LED_Yellow_GetState:
  081d: 62 d0 00  mov   reg[CUR_PP],000h
  0820: 51 00     mov   A,[__data_start] ; or possibly _fillerBuffer1, _globalSystemFlags
  0822: 73        cpl   A
  0823: 21 04     and   A,004h
  0825: a0 03     jz    0829h
  0827: 50 01     mov   A,001h
  0829: 70 3f     and   F,03fh ; Paging mode changed from 3 to 0
  082b: 71 c0     or    F,0c0h ; Paging mode changed from 0 to 3
  082d: 7f        ret

LED_Red_On:
_LED_Red_On:
  082e: 50 01     mov   A,001h
  0830: 80 03     jmp   _LED_Red_Switch
LED_Red_Off:
LED_Red_Stop:
_LED_Red_Stop:
LED_Red_Start:
_LED_Red_Start:
_LED_Red_Off:
  0832: 50 00     mov   A,000h
_LED_Red_Switch:
LED_Red_Switch:
  0834: 62 d0 00  mov   reg[CUR_PP],000h
  0837: 29 00     or    A,000h
  0839: a0 06     jz    0840h
  083b: 26 00 ef  and   [__data_start],0efh ; or possibly _fillerBuffer1, _globalSystemFlags
  083e: 80 04     jmp   0843h
  0840: 2e 00 10  or    [__data_start],010h ; or possibly _fillerBuffer1, _globalSystemFlags
  0843: 51 00     mov   A,[__data_start] ; or possibly _fillerBuffer1, _globalSystemFlags
  0845: 60 04     mov   reg[PRT1DR],A
  0847: 70 3f     and   F,03fh ; Paging mode changed from 3 to 0
  0849: 71 c0     or    F,0c0h ; Paging mode changed from 0 to 3
  084b: 7f        ret

LED_Red_Invert:
_LED_Red_Invert:
  084c: 62 d0 00  mov   reg[CUR_PP],000h
  084f: 36 00 10  xor   [__data_start],010h ; or possibly _fillerBuffer1, _globalSystemFlags
  0852: 51 00     mov   A,[__data_start] ; or possibly _fillerBuffer1, _globalSystemFlags
  0854: 60 04     mov   reg[PRT1DR],A
  0856: 70 3f     and   F,03fh ; Paging mode changed from 3 to 0
  0858: 71 c0     or    F,0c0h ; Paging mode changed from 0 to 3
  085a: 7f        ret

_LED_Red_GetState:
LED_Red_GetState:
  085b: 62 d0 00  mov   reg[CUR_PP],000h
  085e: 51 00     mov   A,[__data_start] ; or possibly _fillerBuffer1, _globalSystemFlags
  0860: 73        cpl   A
  0861: 21 10     and   A,010h
  0863: a0 03     jz    0867h
  0865: 50 01     mov   A,001h
  0867: 70 3f     and   F,03fh ; Paging mode changed from 3 to 0
  0869: 71 c0     or    F,0c0h ; Paging mode changed from 0 to 3
  086b: 7f        ret

LED_Green_On:
_LED_Green_On:
  086c: 50 01     mov   A,001h
  086e: 80 03     jmp   LED_Green_Switch
LED_Green_Start:
LED_Green_Off:
LED_Green_Stop:
_LED_Green_Off:
_LED_Green_Stop:
_LED_Green_Start:
  0870: 50 00     mov   A,000h
LED_Green_Switch:
_LED_Green_Switch:
  0872: 62 d0 00  mov   reg[CUR_PP],000h
  0875: 29 00     or    A,000h
  0877: a0 06     jz    087eh
  0879: 26 00 f7  and   [__data_start],0f7h ; or possibly _fillerBuffer1, _globalSystemFlags
  087c: 80 04     jmp   0881h
  087e: 2e 00 08  or    [__data_start],008h ; or possibly _fillerBuffer1, _globalSystemFlags
  0881: 51 00     mov   A,[__data_start] ; or possibly _fillerBuffer1, _globalSystemFlags
  0883: 60 04     mov   reg[PRT1DR],A
  0885: 70 3f     and   F,03fh ; Paging mode changed from 3 to 0
  0887: 71 c0     or    F,0c0h ; Paging mode changed from 0 to 3
  0889: 7f        ret

_LED_Green_Invert:
LED_Green_Invert:
  088a: 62 d0 00  mov   reg[CUR_PP],000h
  088d: 36 00 08  xor   [__data_start],008h ; or possibly _fillerBuffer1, _globalSystemFlags
  0890: 51 00     mov   A,[__data_start] ; or possibly _fillerBuffer1, _globalSystemFlags
  0892: 60 04     mov   reg[PRT1DR],A
  0894: 70 3f     and   F,03fh ; Paging mode changed from 3 to 0
  0896: 71 c0     or    F,0c0h ; Paging mode changed from 0 to 3
  0898: 7f        ret

_LED_Green_GetState:
LED_Green_GetState:
  0899: 62 d0 00  mov   reg[CUR_PP],000h
  089c: 51 00     mov   A,[__data_start] ; or possibly _fillerBuffer1, _globalSystemFlags
  089e: 73        cpl   A
  089f: 21 08     and   A,008h
  08a1: a0 03     jz    08a5h
  08a3: 50 01     mov   A,001h
  08a5: 70 3f     and   F,03fh ; Paging mode changed from 3 to 0
  08a7: 71 c0     or    F,0c0h ; Paging mode changed from 0 to 3
  08a9: 7f        ret

_E2PROM_Start:
E2PROM_Start:
  08aa: 7f        ret

E2PROM_Stop:
_E2PROM_Stop:
  08ab: 7f        ret

E2PROM_bE2Write:
_E2PROM_bE2Write:
  08ac: 5d f7     mov   A,reg[CPU_F]
  08ae: 08        push  A
  08af: 50 00     mov   A,000h
  08b1: 08        push  A
  08b2: 50 fa     mov   A,0fah
  08b4: 08        push  A
  08b5: 7d 0b b3  ljmp  bE2Write
E2PROM_E2Read:
_E2PROM_E2Read:
  08b8: 5d f7     mov   A,reg[CPU_F]
  08ba: 08        push  A
  08bb: 50 00     mov   A,000h
  08bd: 5c        mov   X,A
  08be: 50 fa     mov   A,0fah
  08c0: 7d 0d 46  ljmp  E2Read
_Deadbolt_SW_On:
Deadbolt_SW_On:
  08c3: 50 01     mov   A,001h
  08c5: 80 03     jmp   Deadbolt_SW_Switch
_Deadbolt_SW_Start:
Deadbolt_SW_Off:
_Deadbolt_SW_Off:
_Deadbolt_SW_Stop:
Deadbolt_SW_Start:
Deadbolt_SW_Stop:
  08c7: 50 00     mov   A,000h
Deadbolt_SW_Switch:
_Deadbolt_SW_Switch:
  08c9: 62 d0 00  mov   reg[CUR_PP],000h
  08cc: 29 00     or    A,000h
  08ce: a0 06     jz    08d5h
  08d0: 2e 02 04  or    [_Port_3_Data_SHADE],004h
  08d3: 80 04     jmp   08d8h
  08d5: 26 02 fb  and   [_Port_3_Data_SHADE],0fbh
  08d8: 51 02     mov   A,[_Port_3_Data_SHADE]
  08da: 60 0c     mov   reg[PRT3DR],A
  08dc: 70 3f     and   F,03fh ; Paging mode changed from 3 to 0
  08de: 71 c0     or    F,0c0h ; Paging mode changed from 0 to 3
  08e0: 7f        ret

Deadbolt_SW_Invert:
_Deadbolt_SW_Invert:
  08e1: 62 d0 00  mov   reg[CUR_PP],000h
  08e4: 36 02 04  xor   [_Port_3_Data_SHADE],004h
  08e7: 51 02     mov   A,[_Port_3_Data_SHADE]
  08e9: 60 0c     mov   reg[PRT3DR],A
  08eb: 70 3f     and   F,03fh ; Paging mode changed from 3 to 0
  08ed: 71 c0     or    F,0c0h ; Paging mode changed from 0 to 3
  08ef: 7f        ret

Deadbolt_SW_GetState:
_Deadbolt_SW_GetState:
  08f0: 62 d0 00  mov   reg[CUR_PP],000h
  08f3: 51 02     mov   A,[_Port_3_Data_SHADE]
  08f5: 21 04     and   A,004h
  08f7: a0 03     jz    08fbh
  08f9: 50 01     mov   A,001h
  08fb: 70 3f     and   F,03fh ; Paging mode changed from 3 to 0
  08fd: 71 c0     or    F,0c0h ; Paging mode changed from 0 to 3
  08ff: 7f        ret

BackLightPWM_On:
_BackLightPWM_On:
  0900: 50 01     mov   A,001h
  0902: 80 03     jmp   _BackLightPWM_Switch
BackLightPWM_Off:
BackLightPWM_Stop:
_BackLightPWM_Stop:
_BackLightPWM_Start:
_BackLightPWM_Off:
BackLightPWM_Start:
  0904: 50 00     mov   A,000h
_BackLightPWM_Switch:
BackLightPWM_Switch:
  0906: 62 d0 00  mov   reg[CUR_PP],000h
  0909: 29 00     or    A,000h
  090b: a0 06     jz    0912h
  090d: 2e 03 40  or    [Port_5_Data_SHADE],040h
  0910: 80 04     jmp   0915h
  0912: 26 03 bf  and   [Port_5_Data_SHADE],0bfh
  0915: 51 03     mov   A,[Port_5_Data_SHADE]
  0917: 60 14     mov   reg[PRT5DR],A
  0919: 70 3f     and   F,03fh ; Paging mode changed from 3 to 0
  091b: 71 c0     or    F,0c0h ; Paging mode changed from 0 to 3
  091d: 7f        ret

_BackLightPWM_Invert:
BackLightPWM_Invert:
  091e: 62 d0 00  mov   reg[CUR_PP],000h
  0921: 36 03 40  xor   [Port_5_Data_SHADE],040h
  0924: 51 03     mov   A,[Port_5_Data_SHADE]
  0926: 60 14     mov   reg[PRT5DR],A
  0928: 70 3f     and   F,03fh ; Paging mode changed from 3 to 0
  092a: 71 c0     or    F,0c0h ; Paging mode changed from 0 to 3
  092c: 7f        ret

_BackLightPWM_GetState:
BackLightPWM_GetState:
  092d: 62 d0 00  mov   reg[CUR_PP],000h
  0930: 51 03     mov   A,[Port_5_Data_SHADE]
  0932: 21 40     and   A,040h
  0934: a0 03     jz    0938h
  0936: 50 01     mov   A,001h
  0938: 70 3f     and   F,03fh ; Paging mode changed from 3 to 0
  093a: 71 c0     or    F,0c0h ; Paging mode changed from 0 to 3
  093c: 7f        ret

BackLight5_On:
_BackLight5_On:
  093d: 50 01     mov   A,001h
  093f: 80 03     jmp   BackLight5_Switch
_BackLight5_Stop:
BackLight5_Start:
BackLight5_Stop:
_BackLight5_Off:
BackLight5_Off:
_BackLight5_Start:
  0941: 50 00     mov   A,000h
BackLight5_Switch:
_BackLight5_Switch:
  0943: 62 d0 00  mov   reg[CUR_PP],000h
  0946: 29 00     or    A,000h
  0948: a0 06     jz    094fh
  094a: 26 01 fd  and   [_Port_2_Data_SHADE],0fdh
  094d: 80 04     jmp   0952h
  094f: 2e 01 02  or    [_Port_2_Data_SHADE],002h
  0952: 51 01     mov   A,[_Port_2_Data_SHADE]
  0954: 60 08     mov   reg[PRT2DR],A
  0956: 70 3f     and   F,03fh ; Paging mode changed from 3 to 0
  0958: 71 c0     or    F,0c0h ; Paging mode changed from 0 to 3
  095a: 7f        ret

BackLight5_Invert:
_BackLight5_Invert:
  095b: 62 d0 00  mov   reg[CUR_PP],000h
  095e: 36 01 02  xor   [_Port_2_Data_SHADE],002h
  0961: 51 01     mov   A,[_Port_2_Data_SHADE]
  0963: 60 08     mov   reg[PRT2DR],A
  0965: 70 3f     and   F,03fh ; Paging mode changed from 3 to 0
  0967: 71 c0     or    F,0c0h ; Paging mode changed from 0 to 3
  0969: 7f        ret

_BackLight5_GetState:
BackLight5_GetState:
  096a: 62 d0 00  mov   reg[CUR_PP],000h
  096d: 51 01     mov   A,[_Port_2_Data_SHADE]
  096f: 73        cpl   A
  0970: 21 02     and   A,002h
  0972: a0 03     jz    0976h
  0974: 50 01     mov   A,001h
  0976: 70 3f     and   F,03fh ; Paging mode changed from 3 to 0
  0978: 71 c0     or    F,0c0h ; Paging mode changed from 0 to 3
  097a: 7f        ret

_BackLight4_On:
BackLight4_On:
  097b: 50 01     mov   A,001h
  097d: 80 03     jmp   _BackLight4_Switch
BackLight4_Stop:
_BackLight4_Start:
_BackLight4_Off:
BackLight4_Off:
BackLight4_Start:
_BackLight4_Stop:
  097f: 50 00     mov   A,000h
_BackLight4_Switch:
BackLight4_Switch:
  0981: 62 d0 00  mov   reg[CUR_PP],000h
  0984: 29 00     or    A,000h
  0986: a0 06     jz    098dh
  0988: 26 01 fe  and   [_Port_2_Data_SHADE],0feh
  098b: 80 04     jmp   0990h
  098d: 2e 01 01  or    [_Port_2_Data_SHADE],001h
  0990: 51 01     mov   A,[_Port_2_Data_SHADE]
  0992: 60 08     mov   reg[PRT2DR],A
  0994: 70 3f     and   F,03fh ; Paging mode changed from 3 to 0
  0996: 71 c0     or    F,0c0h ; Paging mode changed from 0 to 3
  0998: 7f        ret

BackLight4_Invert:
_BackLight4_Invert:
  0999: 62 d0 00  mov   reg[CUR_PP],000h
  099c: 36 01 01  xor   [_Port_2_Data_SHADE],001h
  099f: 51 01     mov   A,[_Port_2_Data_SHADE]
  09a1: 60 08     mov   reg[PRT2DR],A
  09a3: 70 3f     and   F,03fh ; Paging mode changed from 3 to 0
  09a5: 71 c0     or    F,0c0h ; Paging mode changed from 0 to 3
  09a7: 7f        ret

BackLight4_GetState:
_BackLight4_GetState:
  09a8: 62 d0 00  mov   reg[CUR_PP],000h
  09ab: 51 01     mov   A,[_Port_2_Data_SHADE]
  09ad: 73        cpl   A
  09ae: 21 01     and   A,001h
  09b0: a0 03     jz    09b4h
  09b2: 50 01     mov   A,001h
  09b4: 70 3f     and   F,03fh ; Paging mode changed from 3 to 0
  09b6: 71 c0     or    F,0c0h ; Paging mode changed from 0 to 3
  09b8: 7f        ret

_BackLight3_On:
BackLight3_On:
  09b9: 50 01     mov   A,001h
  09bb: 80 03     jmp   BackLight3_Switch
BackLight3_Stop:
_BackLight3_Start:
_BackLight3_Stop:
BackLight3_Off:
BackLight3_Start:
_BackLight3_Off:
  09bd: 50 00     mov   A,000h
BackLight3_Switch:
_BackLight3_Switch:
  09bf: 62 d0 00  mov   reg[CUR_PP],000h
  09c2: 29 00     or    A,000h
  09c4: a0 06     jz    09cbh
  09c6: 26 02 ef  and   [_Port_3_Data_SHADE],0efh
  09c9: 80 04     jmp   09ceh
  09cb: 2e 02 10  or    [_Port_3_Data_SHADE],010h
  09ce: 51 02     mov   A,[_Port_3_Data_SHADE]
  09d0: 60 0c     mov   reg[PRT3DR],A
  09d2: 70 3f     and   F,03fh ; Paging mode changed from 3 to 0
  09d4: 71 c0     or    F,0c0h ; Paging mode changed from 0 to 3
  09d6: 7f        ret

_BackLight3_Invert:
BackLight3_Invert:
  09d7: 62 d0 00  mov   reg[CUR_PP],000h
  09da: 36 02 10  xor   [_Port_3_Data_SHADE],010h
  09dd: 51 02     mov   A,[_Port_3_Data_SHADE]
  09df: 60 0c     mov   reg[PRT3DR],A
  09e1: 70 3f     and   F,03fh ; Paging mode changed from 3 to 0
  09e3: 71 c0     or    F,0c0h ; Paging mode changed from 0 to 3
  09e5: 7f        ret

_BackLight3_GetState:
BackLight3_GetState:
  09e6: 62 d0 00  mov   reg[CUR_PP],000h
  09e9: 51 02     mov   A,[_Port_3_Data_SHADE]
  09eb: 73        cpl   A
  09ec: 21 10     and   A,010h
  09ee: a0 03     jz    09f2h
  09f0: 50 01     mov   A,001h
  09f2: 70 3f     and   F,03fh ; Paging mode changed from 3 to 0
  09f4: 71 c0     or    F,0c0h ; Paging mode changed from 0 to 3
  09f6: 7f        ret

BackLight2_On:
_BackLight2_On:
  09f7: 50 01     mov   A,001h
  09f9: 80 03     jmp   _BackLight2_Switch
_BackLight2_Off:
_BackLight2_Stop:
BackLight2_Off:
_BackLight2_Start:
BackLight2_Start:
BackLight2_Stop:
  09fb: 50 00     mov   A,000h
_BackLight2_Switch:
BackLight2_Switch:
  09fd: 62 d0 00  mov   reg[CUR_PP],000h
  0a00: 29 00     or    A,000h
  0a02: a0 06     jz    0a09h
  0a04: 26 02 df  and   [_Port_3_Data_SHADE],0dfh
  0a07: 80 04     jmp   0a0ch
  0a09: 2e 02 20  or    [_Port_3_Data_SHADE],020h
  0a0c: 51 02     mov   A,[_Port_3_Data_SHADE]
  0a0e: 60 0c     mov   reg[PRT3DR],A
  0a10: 70 3f     and   F,03fh ; Paging mode changed from 3 to 0
  0a12: 71 c0     or    F,0c0h ; Paging mode changed from 0 to 3
  0a14: 7f        ret

_BackLight2_Invert:
BackLight2_Invert:
  0a15: 62 d0 00  mov   reg[CUR_PP],000h
  0a18: 36 02 20  xor   [_Port_3_Data_SHADE],020h
  0a1b: 51 02     mov   A,[_Port_3_Data_SHADE]
  0a1d: 60 0c     mov   reg[PRT3DR],A
  0a1f: 70 3f     and   F,03fh ; Paging mode changed from 3 to 0
  0a21: 71 c0     or    F,0c0h ; Paging mode changed from 0 to 3
  0a23: 7f        ret

BackLight2_GetState:
_BackLight2_GetState:
  0a24: 62 d0 00  mov   reg[CUR_PP],000h
  0a27: 51 02     mov   A,[_Port_3_Data_SHADE]
  0a29: 73        cpl   A
  0a2a: 21 20     and   A,020h
  0a2c: a0 03     jz    0a30h
  0a2e: 50 01     mov   A,001h
  0a30: 70 3f     and   F,03fh ; Paging mode changed from 3 to 0
  0a32: 71 c0     or    F,0c0h ; Paging mode changed from 0 to 3
  0a34: 7f        ret

_BackLight1_On:
BackLight1_On:
  0a35: 50 01     mov   A,001h
  0a37: 80 03     jmp   _BackLight1_Switch
_BackLight1_Start:
BackLight1_Stop:
_BackLight1_Off:
_BackLight1_Stop:
BackLight1_Start:
BackLight1_Off:
  0a39: 50 00     mov   A,000h
_BackLight1_Switch:
BackLight1_Switch:
  0a3b: 62 d0 00  mov   reg[CUR_PP],000h
  0a3e: 29 00     or    A,000h
  0a40: a0 06     jz    0a47h
  0a42: 26 02 7f  and   [_Port_3_Data_SHADE],07fh
  0a45: 80 04     jmp   0a4ah
  0a47: 2e 02 80  or    [_Port_3_Data_SHADE],080h
  0a4a: 51 02     mov   A,[_Port_3_Data_SHADE]
  0a4c: 60 0c     mov   reg[PRT3DR],A
  0a4e: 70 3f     and   F,03fh ; Paging mode changed from 3 to 0
  0a50: 71 c0     or    F,0c0h ; Paging mode changed from 0 to 3
  0a52: 7f        ret

BackLight1_Invert:
_BackLight1_Invert:
  0a53: 62 d0 00  mov   reg[CUR_PP],000h
  0a56: 36 02 80  xor   [_Port_3_Data_SHADE],080h
  0a59: 51 02     mov   A,[_Port_3_Data_SHADE]
  0a5b: 60 0c     mov   reg[PRT3DR],A
  0a5d: 70 3f     and   F,03fh ; Paging mode changed from 3 to 0
  0a5f: 71 c0     or    F,0c0h ; Paging mode changed from 0 to 3
  0a61: 7f        ret

_BackLight1_GetState:
BackLight1_GetState:
  0a62: 62 d0 00  mov   reg[CUR_PP],000h
  0a65: 51 02     mov   A,[_Port_3_Data_SHADE]
  0a67: 73        cpl   A
  0a68: 21 80     and   A,080h
  0a6a: a0 03     jz    0a6eh
  0a6c: 50 01     mov   A,001h
  0a6e: 70 3f     and   F,03fh ; Paging mode changed from 3 to 0
  0a70: 71 c0     or    F,0c0h ; Paging mode changed from 0 to 3
  0a72: 7f        ret

_ADCINC_ADConversion_ISR:
  0a73: 7a 09     dec   [_ADCINC_bState]
  0a75: c0 02     jc    0a78h
  0a77: 7e        reti

  0a78: 3c 0a 00  cmp   [ADCINC_fMode],000h
  0a7b: b0 12     jnz   0a8eh
  0a7d: 08        push  A
  0a7e: 5d e5     mov   A,reg[DEC_DL]
  0a80: 53 07     mov   [007h],A
  0a82: 5d e4     mov   A,reg[DEC_DH]
  0a84: 53 06     mov   [006h],A
  0a86: 18        pop   A
  0a87: 55 0a 01  mov   [ADCINC_fMode],001h
  0a8a: 55 09 ff  mov   [_ADCINC_bState],0ffh
  0a8d: 7e        reti

  0a8e: 43 82 20  or    reg[ASC10CR2],020h
  0a91: 43 83 10  or    reg[ASC10CR3],010h
  0a94: 43 92 20  or    reg[ASD20CR2],020h
  0a97: 43 93 10  or    reg[ASD20CR3],010h
  0a9a: 08        push  A
  0a9b: 5d e5     mov   A,reg[DEC_DL]
  0a9d: 12 07     sub   A,[007h]
  0a9f: 53 07     mov   [007h],A
  0aa1: 5d e4     mov   A,reg[DEC_DH]
  0aa3: 1a 06     sbb   A,[006h]
  0aa5: 39 40     cmp   A,040h
  0aa7: b0 05     jnz   0aadh
  0aa9: 78        dec   A
  0aaa: 55 07 ff  mov   [007h],0ffh
  0aad: 5f 05 07  mov   [005h],[007h]
  0ab0: 53 04     mov   [ADCINC_iResult],A
  0ab2: 55 08 01  mov   [_ADCINC_fStatus],001h
  0ab5: 18        pop   A
  0ab6: 3c 0b 00  cmp   [ADCINC_bNumSamples],000h
  0ab9: b0 14     jnz   0aceh
  0abb: 55 0a 00  mov   [ADCINC_fMode],000h
  0abe: 55 09 00  mov   [_ADCINC_bState],000h
  0ac1: 41 83 ef  and   reg[ASC10CR3],0efh
  0ac4: 41 82 df  and   reg[ASC10CR2],0dfh
  0ac7: 41 93 ef  and   reg[ASD20CR3],0efh
  0aca: 41 92 df  and   reg[ASD20CR2],0dfh
  0acd: 7e        reti

  0ace: 7a 0b     dec   [ADCINC_bNumSamples]
  0ad0: a0 14     jz    0ae5h
  0ad2: 55 0a 00  mov   [ADCINC_fMode],000h
  0ad5: 55 09 00  mov   [_ADCINC_bState],000h
  0ad8: 41 83 ef  and   reg[ASC10CR3],0efh
  0adb: 41 82 df  and   reg[ASC10CR2],0dfh
  0ade: 41 93 ef  and   reg[ASD20CR3],0efh
  0ae1: 41 92 df  and   reg[ASD20CR2],0dfh
  0ae4: 7e        reti

  0ae5: 71 10     or    F,010h
  0ae7: 41 e7 3f  and   reg[NOT_USED],03fh
  0aea: 43 e7 80  or    reg[NOT_USED],080h
  0aed: 70 ef     and   F,0efh
  0aef: 41 e1 fe  and   reg[INT_MSK1],0feh
  0af2: 7e        reti

ADCINC_Start:
_ADCINC_Start:
  0af3: 90 13     call  0b07h
  0af5: 43 82 20  or    reg[ASC10CR2],020h
  0af8: 43 83 10  or    reg[ASC10CR3],010h
  0afb: 43 92 20  or    reg[ASD20CR2],020h
  0afe: 43 93 10  or    reg[ASD20CR3],010h
  0b01: 62 21 ff  mov   reg[DBB00DR1],0ffh
  0b04: 43 23 01  or    reg[DBB00CR0],001h
  0b07: 7f        ret

_ADCINC_SetPower:
ADCINC_SetPower:
  0b08: 21 03     and   A,003h
  0b0a: 08        push  A
  0b0b: 08        push  A
  0b0c: 4f        mov   X,SP
  0b0d: 5d 83     mov   A,reg[ASC10CR3]
  0b0f: 21 fc     and   A,0fch
  0b11: 2d fe     or    [X+0feh],A ; or possibly SROM_DELAY
  0b13: 5d 93     mov   A,reg[ASD20CR3]
  0b15: 21 fc     and   A,0fch
  0b17: 2d ff     or    [X+0ffh],A ; or possibly SROM_Reserved
  0b19: 18        pop   A
  0b1a: 60 93     mov   reg[ASD20CR3],A
  0b1c: 18        pop   A
  0b1d: 60 83     mov   reg[ASC10CR3],A
  0b1f: 70 3f     and   F,03fh ; Paging mode changed from 3 to 0
  0b21: 71 c0     or    F,0c0h ; Paging mode changed from 0 to 3
  0b23: 7f        ret

ADCINC_Stop:
_ADCINC_Stop:
  0b24: 41 e1 fe  and   reg[INT_MSK1],0feh
  0b27: 41 83 fc  and   reg[ASC10CR3],0fch
  0b2a: 41 93 fc  and   reg[ASD20CR3],0fch
  0b2d: 41 23 fe  and   reg[DBB00CR0],0feh
  0b30: 7f        ret

ADCINC_GetSamples:
_ADCINC_GetSamples:
  0b31: 62 d0 00  mov   reg[CUR_PP],000h
  0b34: 41 83 ef  and   reg[ASC10CR3],0efh
  0b37: 41 82 df  and   reg[ASC10CR2],0dfh
  0b3a: 41 93 ef  and   reg[ASD20CR3],0efh
  0b3d: 41 92 df  and   reg[ASD20CR2],0dfh
  0b40: 55 0a 00  mov   [ADCINC_fMode],000h
  0b43: 55 09 00  mov   [_ADCINC_bState],000h
  0b46: 53 0b     mov   [ADCINC_bNumSamples],A
  0b48: 5d 22     mov   A,reg[DBB00DR2]
  0b4a: b0 04     jnz   0b4fh
  0b4c: 62 22 01  mov   reg[DBB00DR2],001h
  0b4f: 71 10     or    F,010h
  0b51: 41 e7 3f  and   reg[NOT_USED],03fh
  0b54: 43 e7 40  or    reg[NOT_USED],040h
  0b57: 70 ef     and   F,0efh
  0b59: 62 db fe  mov   reg[INT_CLR1],0feh
  0b5c: 43 e1 01  or    reg[INT_MSK1],001h
  0b5f: 7f        ret

ADCINC_StopADC:
_ADCINC_StopADC:
  0b60: 71 10     or    F,010h
  0b62: 41 e7 3f  and   reg[NOT_USED],03fh
  0b65: 43 e7 80  or    reg[NOT_USED],080h
  0b68: 70 ef     and   F,0efh
  0b6a: 41 e1 fe  and   reg[INT_MSK1],0feh
  0b6d: 43 82 20  or    reg[ASC10CR2],020h
  0b70: 43 83 10  or    reg[ASC10CR3],010h
  0b73: 43 92 20  or    reg[ASD20CR2],020h
  0b76: 43 93 10  or    reg[ASD20CR3],010h
  0b79: 7f        ret

ADCINC_fIsDataAvailable:
_ADCINC_fIsDataAvailable:
  0b7a: 62 d0 00  mov   reg[CUR_PP],000h
  0b7d: 51 08     mov   A,[_ADCINC_fStatus]
  0b7f: 7f        ret

_ADCINC_iClearFlagGetData:
ADCINC_wClearFlagGetData:
ADCINC_iClearFlagGetData:
_ADCINC_wClearFlagGetData:
  0b80: 62 d0 00  mov   reg[CUR_PP],000h
  0b83: 55 08 00  mov   [_ADCINC_fStatus],000h
  0b86: 58 04     mov   X,[ADCINC_iResult]
  0b88: 51 05     mov   A,[005h]
  0b8a: 3c 08 00  cmp   [_ADCINC_fStatus],000h
  0b8d: bf f5     jnz   0b83h
  0b8f: 7f        ret

ADCINC_bClearFlagGetData:
ADCINC_cClearFlagGetData:
_ADCINC_bClearFlagGetData:
_ADCINC_cClearFlagGetData:
  0b90: 62 d0 00  mov   reg[CUR_PP],000h
  0b93: 55 08 00  mov   [_ADCINC_fStatus],000h
  0b96: 51 05     mov   A,[005h]
  0b98: 7f        ret

ADCINC_iGetData:
_ADCINC_wGetData:
_ADCINC_iGetData:
ADCINC_wGetData:
  0b99: 62 d0 00  mov   reg[CUR_PP],000h
  0b9c: 58 04     mov   X,[ADCINC_iResult]
  0b9e: 51 05     mov   A,[005h]
  0ba0: 7f        ret

_ADCINC_bGetData:
_ADCINC_cGetData:
ADCINC_cGetData:
ADCINC_bGetData:
  0ba1: 62 d0 00  mov   reg[CUR_PP],000h
  0ba4: 51 05     mov   A,[005h]
  0ba6: 7f        ret

ADCINC_fClearFlag:
_ADCINC_fClearFlag:
  0ba7: 62 d0 00  mov   reg[CUR_PP],000h
  0baa: 51 08     mov   A,[_ADCINC_fStatus]
  0bac: 55 08 00  mov   [_ADCINC_fStatus],000h
  0baf: 7f        ret

_ADCINC_WritePulseWidth:
ADCINC_WritePulseWidth:
  0bb0: 60 22     mov   reg[DBB00DR2],A
  0bb2: 7f        ret

bE2Write:
_bE2Write:
  0bb3: 4f        mov   X,SP
  0bb4: 4b        swap  A,X
  0bb5: 39 ea     cmp   A,0eah
  0bb7: c0 06     jc    0bbeh
  0bb9: 50 fe     mov   A,0feh
  0bbb: 38 fe     add   SP,0feh
  0bbd: 7e        reti

  0bbe: 4f        mov   X,SP
  0bbf: 79        dec   X
  0bc0: 79        dec   X
  0bc1: 38 09     add   SP,009h
  0bc3: 56 08 00  mov   [X+_ADCINC_fStatus],000h
  0bc6: 52 fb     mov   A,[X+SROM_Pointer]
  0bc8: 08        push  A
  0bc9: 52 fc     mov   A,[X+SROM_Clock]
  0bcb: 08        push  A
  0bcc: 69 fb     asr   [X+0fbh] ; or possibly SROM_Pointer
  0bce: 6f fc     rrc   [X+0fch] ; or possibly SROM_Clock
  0bd0: 69 fb     asr   [X+0fbh] ; or possibly SROM_Pointer
  0bd2: 6f fc     rrc   [X+0fch] ; or possibly SROM_Clock
  0bd4: 69 fb     asr   [X+0fbh] ; or possibly SROM_Pointer
  0bd6: 6f fc     rrc   [X+0fch] ; or possibly SROM_Clock
  0bd8: 69 fb     asr   [X+0fbh] ; or possibly SROM_Pointer
  0bda: 6f fc     rrc   [X+0fch] ; or possibly SROM_Clock
  0bdc: 69 fb     asr   [X+0fbh] ; or possibly SROM_Pointer
  0bde: 6f fc     rrc   [X+0fch] ; or possibly SROM_Clock
  0be0: 69 fb     asr   [X+0fbh] ; or possibly SROM_Pointer
  0be2: 6f fc     rrc   [X+0fch] ; or possibly SROM_Clock
  0be4: 52 fc     mov   A,[X+SROM_Clock]
  0be6: 05 01     add   [X+001h],A ; or possibly Port_2_Data_SHADE, _Port_2_Data_SHADE
  0be8: 52 fb     mov   A,[X+SROM_Pointer]
  0bea: 0d 00     adc   [X+000h],A ; or possibly Port_1_Data_SHADE, NO_SHADOW, _NO_SHADOW, _Port_1_Data_SHADE, __data_start, _fillerBuffer1, _globalSystemFlags
  0bec: 18        pop   A
  0bed: 54 fc     mov   [X+SROM_Clock],A
  0bef: 18        pop   A
  0bf0: 54 fb     mov   [X+SROM_Pointer],A
  0bf2: 52 fa     mov   A,[X+SROM_BlockID]
  0bf4: 54 03     mov   [X+Port_5_Data_SHADE],A
  0bf6: 52 f9     mov   A,[X+SROM_Key2]
  0bf8: 54 02     mov   [X+_Port_3_Data_SHADE],A
  0bfa: 52 f6     mov   A,[X+0f6h]
  0bfc: 54 04     mov   [X+ADCINC_iResult],A
  0bfe: 52 fc     mov   A,[X+SROM_Clock]
  0c00: 21 3f     and   A,03fh
  0c02: 54 09     mov   [X+_ADCINC_bState],A
  0c04: 50 40     mov   A,040h
  0c06: 13 09     sub   A,[X+009h] ; or possibly ADCINC_bState, _ADCINC_bState
  0c08: 54 0a     mov   [X+ADCINC_fMode],A
  0c0a: 52 f7     mov   A,[X+0f7h]
  0c0c: b0 09     jnz   0c16h
  0c0e: 52 f8     mov   A,[X+SROM_Key1]
  0c10: 3b 0a     cmp   A,[X+00ah] ; or possibly _ADCINC_fMode, ADCINC_fMode
  0c12: d0 03     jnc   0c16h
  0c14: 54 0a     mov   [X+ADCINC_fMode],A
  0c16: 3d 0a 40  cmp   [X+00ah],040h ; or possibly _ADCINC_fMode, ADCINC_fMode
  0c19: b0 1c     jnz   0c36h
  0c1b: 56 08 ff  mov   [X+_ADCINC_fStatus],0ffh
  0c1e: 10        push  X
  0c1f: 5b        mov   A,X
  0c20: 01 00     add   A,000h
  0c22: 5c        mov   X,A
  0c23: 5d d1     mov   A,reg[STK_PP]
  0c25: 70 3f     and   F,03fh ; Paging mode changed from 3 to 0
  0c27: 71 c0     or    F,0c0h ; Paging mode changed from 0 to 3
  0c29: 7c 0d ac  lcall _bFlashWriteBlock
  0c2c: 20        pop   X
  0c2d: 39 00     cmp   A,000h
  0c2f: a0 4d     jz    0c7dh
  0c31: 56 08 00  mov   [X+_ADCINC_fStatus],000h
  0c34: 80 1d     jmp   0c52h
  0c36: 52 03     mov   A,[X+Port_5_Data_SHADE]
  0c38: 54 fa     mov   [X+SROM_BlockID],A
  0c3a: 52 02     mov   A,[X+_Port_3_Data_SHADE]
  0c3c: 54 f9     mov   [X+SROM_Key2],A
  0c3e: 90 46     call  0c85h
  0c40: 52 08     mov   A,[X+_ADCINC_fStatus]
  0c42: 39 ff     cmp   A,0ffh
  0c44: a0 38     jz    0c7dh
  0c46: 39 fe     cmp   A,0feh
  0c48: a0 34     jz    0c7dh
  0c4a: 52 fa     mov   A,[X+SROM_BlockID]
  0c4c: 54 03     mov   [X+Port_5_Data_SHADE],A
  0c4e: 52 f9     mov   A,[X+SROM_Key2]
  0c50: 54 02     mov   [X+_Port_3_Data_SHADE],A
  0c52: 52 f8     mov   A,[X+SROM_Key1]
  0c54: 13 0a     sub   A,[X+00ah] ; or possibly _ADCINC_fMode, ADCINC_fMode
  0c56: 54 f8     mov   [X+SROM_Key1],A
  0c58: d0 03     jnc   0c5ch
  0c5a: 7b f7     dec   [X+0f7h]
  0c5c: 52 f8     mov   A,[X+SROM_Key1]
  0c5e: 2b f7     or    A,[X+0f7h]
  0c60: a0 1c     jz    0c7dh
  0c62: 77 01     inc   [X+_Port_2_Data_SHADE]
  0c64: 0f 00 00  adc   [X+000h],000h ; or possibly Port_1_Data_SHADE, NO_SHADOW, _NO_SHADOW, _Port_1_Data_SHADE, __data_start, _fillerBuffer1, _globalSystemFlags
  0c67: 52 03     mov   A,[X+Port_5_Data_SHADE]
  0c69: 03 0a     add   A,[X+00ah] ; or possibly _ADCINC_fMode, ADCINC_fMode
  0c6b: 54 03     mov   [X+Port_5_Data_SHADE],A
  0c6d: d0 03     jnc   0c71h
  0c6f: 77 02     inc   [X+_Port_3_Data_SHADE]
  0c71: 52 fc     mov   A,[X+SROM_Clock]
  0c73: 03 0a     add   A,[X+00ah] ; or possibly _ADCINC_fMode, ADCINC_fMode
  0c75: 54 fc     mov   [X+SROM_Clock],A
  0c77: df 86     jnc   0bfeh
  0c79: 77 fb     inc   [X+SROM_Pointer]
  0c7b: 8f 82     jmp   0bfeh
  0c7d: 52 08     mov   A,[X+_ADCINC_fStatus]
  0c7f: 38 f5     add   SP,0f5h
  0c81: 70 3f     and   F,03fh ; Paging mode changed from 3 to 0
  0c83: 71 c0     or    F,0c0h ; Paging mode changed from 0 to 3
  0c85: 7e        reti

  0c86: 5b        mov   A,X
  0c87: 4f        mov   X,SP
  0c88: 4b        swap  A,X
  0c89: 39 a0     cmp   A,0a0h
  0c8b: c0 05     jc    0c91h
  0c8d: 56 08 fe  mov   [X+_ADCINC_fStatus],0feh
  0c90: 7f        ret

  0c91: 38 44     add   SP,044h
  0c93: 52 09     mov   A,[X+_ADCINC_bState]
  0c95: 03 0a     add   A,[X+00ah] ; or possibly _ADCINC_fMode, ADCINC_fMode
  0c97: 54 0d     mov   [X+00dh],A
  0c99: 52 09     mov   A,[X+_ADCINC_bState]
  0c9b: a0 22     jz    0cbeh
  0c9d: 10        push  X
  0c9e: 50 00     mov   A,000h
  0ca0: 08        push  A
  0ca1: 52 09     mov   A,[X+_ADCINC_bState]
  0ca3: 08        push  A
  0ca4: 5d d1     mov   A,reg[STK_PP]
  0ca6: 08        push  A
  0ca7: 5b        mov   A,X
  0ca8: 01 0e     add   A,00eh
  0caa: 08        push  A
  0cab: 50 00     mov   A,000h
  0cad: 08        push  A
  0cae: 08        push  A
  0caf: 52 00     mov   A,[X+__data_start] ; or possibly _fillerBuffer1, _globalSystemFlags
  0cb1: 08        push  A
  0cb2: 52 01     mov   A,[X+_Port_2_Data_SHADE]
  0cb4: 20        pop   X
  0cb5: 70 3f     and   F,03fh ; Paging mode changed from 3 to 0
  0cb7: 71 c0     or    F,0c0h ; Paging mode changed from 0 to 3
  0cb9: 90 84     call  0d3eh
  0cbb: 38 fa     add   SP,0fah
  0cbd: 20        pop   X
  0cbe: 3d 0d 40  cmp   [X+00dh],040h
  0cc1: d0 28     jnc   0ceah
  0cc3: 10        push  X
  0cc4: 50 00     mov   A,000h
  0cc6: 08        push  A
  0cc7: 50 40     mov   A,040h
  0cc9: 13 0d     sub   A,[X+00dh]
  0ccb: 08        push  A
  0ccc: 5d d1     mov   A,reg[STK_PP]
  0cce: 08        push  A
  0ccf: 5b        mov   A,X
  0cd0: 01 0e     add   A,00eh
  0cd2: 0b 0d     adc   A,[X+00dh]
  0cd4: 08        push  A
  0cd5: 50 00     mov   A,000h
  0cd7: 08        push  A
  0cd8: 52 0d     mov   A,[X+00dh]
  0cda: 08        push  A
  0cdb: 52 00     mov   A,[X+__data_start] ; or possibly _fillerBuffer1, _globalSystemFlags
  0cdd: 08        push  A
  0cde: 52 01     mov   A,[X+_Port_2_Data_SHADE]
  0ce0: 20        pop   X
  0ce1: 70 3f     and   F,03fh ; Paging mode changed from 3 to 0
  0ce3: 71 c0     or    F,0c0h ; Paging mode changed from 0 to 3
  0ce5: 90 58     call  0d3eh
  0ce7: 38 fa     add   SP,0fah
  0ce9: 20        pop   X
  0cea: 5b        mov   A,X
  0ceb: 03 09     add   A,[X+009h] ; or possibly ADCINC_bState, _ADCINC_bState
  0ced: 01 0e     add   A,00eh
  0cef: 53 fc     mov   [SROM_Clock],A
  0cf1: 5d d1     mov   A,reg[STK_PP]
  0cf3: 60 d5     mov   reg[MVW_PP],A
  0cf5: 52 03     mov   A,[X+Port_5_Data_SHADE]
  0cf7: 53 fa     mov   [SROM_BlockID],A
  0cf9: 52 02     mov   A,[X+_Port_3_Data_SHADE]
  0cfb: 60 d4     mov   reg[MVR_PP],A
  0cfd: 52 0d     mov   A,[X+00dh]
  0cff: 13 09     sub   A,[X+009h] ; or possibly ADCINC_bState, _ADCINC_bState
  0d01: 53 ff     mov   [SROM_Reserved],A
  0d03: 3e fa     mvi   A,[[SROM_BlockID]++]
  0d05: 3f fc     mvi   [[SROM_Clock]++],A
  0d07: 51 fa     mov   A,[SROM_BlockID]
  0d09: b0 06     jnz   0d10h
  0d0b: 5d d4     mov   A,reg[MVR_PP]
  0d0d: 74        inc   A
  0d0e: 60 d4     mov   reg[MVR_PP],A
  0d10: 7a ff     dec   [SROM_Reserved]
  0d12: bf f0     jnz   0d03h
  0d14: 52 03     mov   A,[X+Port_5_Data_SHADE]
  0d16: 08        push  A
  0d17: 5b        mov   A,X
  0d18: 01 0e     add   A,00eh
  0d1a: 54 03     mov   [X+Port_5_Data_SHADE],A
  0d1c: 5d d1     mov   A,reg[STK_PP]
  0d1e: 54 02     mov   [X+_Port_3_Data_SHADE],A
  0d20: 56 08 ff  mov   [X+_ADCINC_fStatus],0ffh
  0d23: 10        push  X
  0d24: 5b        mov   A,X
  0d25: 01 00     add   A,000h
  0d27: 5c        mov   X,A
  0d28: 5d d1     mov   A,reg[STK_PP]
  0d2a: 70 3f     and   F,03fh ; Paging mode changed from 3 to 0
  0d2c: 71 c0     or    F,0c0h ; Paging mode changed from 0 to 3
  0d2e: 7c 0d ac  lcall _bFlashWriteBlock
  0d31: 20        pop   X
  0d32: 39 00     cmp   A,000h
  0d34: a0 04     jz    0d39h
  0d36: 56 08 00  mov   [X+_ADCINC_fStatus],000h
  0d39: 18        pop   A
  0d3a: 54 03     mov   [X+Port_5_Data_SHADE],A
  0d3c: 38 bc     add   SP,0bch
  0d3e: 7f        ret

  0d3f: 53 f8     mov   [SROM_Key1],A
  0d41: 5d f7     mov   A,reg[CPU_F]
  0d43: 08        push  A
  0d44: 51 f8     mov   A,[SROM_Key1]
E2Read:
_E2Read:
  0d46: 08        push  A
  0d47: 10        push  X
  0d48: 62 d0 00  mov   reg[CUR_PP],000h
  0d4b: 20        pop   X
  0d4c: 18        pop   A
  0d4d: 5a f8     mov   [SROM_Key1],X
  0d4f: 64        asl   A
  0d50: 6b f8     rlc   [SROM_Key1]
  0d52: 64        asl   A
  0d53: 6b f8     rlc   [SROM_Key1]
  0d55: 64        asl   A
  0d56: 6b f8     rlc   [SROM_Key1]
  0d58: 64        asl   A
  0d59: 6b f8     rlc   [SROM_Key1]
  0d5b: 64        asl   A
  0d5c: 6b f8     rlc   [SROM_Key1]
  0d5e: 64        asl   A
  0d5f: 6b f8     rlc   [SROM_Key1]
  0d61: 21 c0     and   A,0c0h
  0d63: 53 f9     mov   [SROM_Key2],A
  0d65: 4f        mov   X,SP
  0d66: 52 f7     mov   A,[X+0f7h]
  0d68: 2b f8     or    A,[X+0f8h] ; or possibly SROM_Key1
  0d6a: a0 3b     jz    0da6h
  0d6c: 52 f7     mov   A,[X+0f7h]
  0d6e: 53 fe     mov   [SROM_DELAY],A
  0d70: 52 f8     mov   A,[X+SROM_Key1]
  0d72: 53 ff     mov   [SROM_Reserved],A
  0d74: 76 fe     inc   [SROM_DELAY]
  0d76: 52 fa     mov   A,[X+SROM_BlockID]
  0d78: 53 fd     mov   [SROM_Reserved1],A
  0d7a: 52 f9     mov   A,[X+SROM_Key2]
  0d7c: 60 d5     mov   reg[MVW_PP],A
  0d7e: 51 f9     mov   A,[SROM_Key2]
  0d80: 05 fc     add   [X+0fch],A ; or possibly SROM_Clock
  0d82: 51 f8     mov   A,[SROM_Key1]
  0d84: 0d fb     adc   [X+0fbh],A ; or possibly SROM_Pointer
  0d86: 52 fb     mov   A,[X+SROM_Pointer]
  0d88: 59 fc     mov   X,[X+0fch] ; or possibly SROM_Clock
  0d8a: 08        push  A
  0d8b: 28        romx
  0d8c: 3f fd     mvi   [[SROM_Reserved1]++],A
  0d8e: 18        pop   A
  0d8f: 75        inc   X
  0d90: b0 02     jnz   0d93h
  0d92: 74        inc   A
  0d93: 08        push  A
  0d94: 51 fd     mov   A,[SROM_Reserved1]
  0d96: b0 06     jnz   0d9dh
  0d98: 5d d5     mov   A,reg[MVW_PP]
  0d9a: 74        inc   A
  0d9b: 60 d5     mov   reg[MVW_PP],A
  0d9d: 18        pop   A
  0d9e: 7a ff     dec   [SROM_Reserved]
  0da0: bf e9     jnz   0d8ah
  0da2: 7a fe     dec   [SROM_DELAY]
  0da4: bf e5     jnz   0d8ah
  0da6: 70 3f     and   F,03fh ; Paging mode changed from 3 to 0
  0da8: 71 c0     or    F,0c0h ; Paging mode changed from 0 to 3
  0daa: 7e        reti

  0dab: 30        halt
_bFlashWriteBlock:
bFlashWriteBlock:
  0dac: 62 d0 00  mov   reg[CUR_PP],000h
  0daf: 53 f8     mov   [SROM_Key1],A
  0db1: 5d f7     mov   A,reg[CPU_F]
  0db3: 08        push  A
  0db4: 21 c0     and   A,0c0h
  0db6: b0 07     jnz   0dbeh
  0db8: 56 02 00  mov   [X+_Port_3_Data_SHADE],000h
  0dbb: 55 f8 00  mov   [SROM_Key1],000h
  0dbe: 51 f8     mov   A,[SROM_Key1]
  0dc0: 70 bf     and   F,0bfh ; Paging mode changed from 3 to 2
  0dc2: 60 d3     mov   reg[IDX_PP],A
  0dc4: 55 fd 01  mov   [SROM_Reserved1],001h
  0dc7: 3c fd 01  cmp   [SROM_Reserved1],001h
  0dca: b0 c5     jnz   0e90h
  0dcc: 71 10     or    F,010h
  0dce: 5d e0     mov   A,reg[OSC_CR0]
  0dd0: 08        push  A
  0dd1: 21 f8     and   A,0f8h
  0dd3: 49 fe 10  tst   reg[CPU_SCR1],010h
  0dd6: a0 05     jz    0ddch
  0dd8: 29 03     or    A,003h
  0dda: 80 03     jmp   0ddeh
  0ddc: 29 02     or    A,002h
  0dde: 60 e0     mov   reg[OSC_CR0],A
  0de0: 70 ef     and   F,0efh
  0de2: 65 fd     asl   [SROM_Reserved1]
  0de4: 3c fd 02  cmp   [SROM_Reserved1],002h
  0de7: b0 a8     jnz   0e90h
  0de9: 90 b9     call  0ea3h
  0deb: 39 00     cmp   A,000h
  0ded: a0 09     jz    0df7h
  0def: 55 ff 00  mov   [SROM_Reserved],000h
  0df2: 55 fd 10  mov   [SROM_Reserved1],010h
  0df5: 80 85     jmp   0e7bh
  0df7: 65 fd     asl   [SROM_Reserved1]
  0df9: 52 01     mov   A,[X+_Port_2_Data_SHADE]
  0dfb: 6a        rlc   A
  0dfc: 52 00     mov   A,[X+__data_start] ; or possibly _fillerBuffer1, _globalSystemFlags
  0dfe: 6a        rlc   A
  0dff: 71 10     or    F,010h
  0e01: 60 fa     mov   reg[NOT_USED],A
  0e03: 70 ef     and   F,0efh
  0e05: 08        push  A
  0e06: 52 01     mov   A,[X+_Port_2_Data_SHADE]
  0e08: 21 7f     and   A,07fh
  0e0a: 53 fa     mov   [SROM_BlockID],A
  0e0c: 08        push  A
  0e0d: 52 05     mov   A,[X+005h]
  0e0f: 53 fc     mov   [SROM_Clock],A
  0e11: 55 fe 56  mov   [SROM_DELAY],056h
  0e14: 51 fd     mov   A,[SROM_Reserved1]
  0e16: 39 04     cmp   A,004h
  0e18: b0 77     jnz   0e90h
  0e1a: 08        push  A
  0e1b: 10        push  X
_FlashBlockLocal1:
  0e1c: 4f        mov   X,SP
  0e1d: 5b        mov   A,X
  0e1e: 01 03     add   A,003h
  0e20: 53 f9     mov   [SROM_Key2],A
  0e22: 55 f8 3a  mov   [SROM_Key1],03ah
  0e25: 50 03     mov   A,003h
  0e27: 00        ssc
  0e28: 20        pop   X
  0e29: 18        pop   A
  0e2a: 53 fd     mov   [SROM_Reserved1],A
  0e2c: 3c f8 00  cmp   [SROM_Key1],000h
  0e2f: a0 0b     jz    0e3bh
  0e31: 55 ff 00  mov   [SROM_Reserved],000h
  0e34: 55 fd 10  mov   [SROM_Reserved1],010h
  0e37: 38 fe     add   SP,0feh
  0e39: 80 41     jmp   0e7bh
  0e3b: 65 fd     asl   [SROM_Reserved1]
  0e3d: 18        pop   A
  0e3e: 53 fa     mov   [SROM_BlockID],A
  0e40: 18        pop   A
  0e41: 71 10     or    F,010h
  0e43: 60 fa     mov   reg[NOT_USED],A
  0e45: 70 ef     and   F,0efh
  0e47: 52 03     mov   A,[X+Port_5_Data_SHADE]
  0e49: 53 fb     mov   [SROM_Pointer],A
  0e4b: 52 02     mov   A,[X+_Port_3_Data_SHADE]
  0e4d: 60 d4     mov   reg[MVR_PP],A
  0e4f: 52 06     mov   A,[X+006h]
  0e51: 53 fc     mov   [SROM_Clock],A
  0e53: 55 fe 56  mov   [SROM_DELAY],056h
  0e56: 51 fd     mov   A,[SROM_Reserved1]
  0e58: 39 08     cmp   A,008h
  0e5a: b0 35     jnz   0e90h
  0e5c: 08        push  A
  0e5d: 10        push  X
_FlashBlockLocal2:
  0e5e: 4f        mov   X,SP
  0e5f: 5b        mov   A,X
  0e60: 01 03     add   A,003h
  0e62: 53 f9     mov   [SROM_Key2],A
  0e64: 55 f8 3a  mov   [SROM_Key1],03ah
  0e67: 50 02     mov   A,002h
  0e69: 00        ssc
  0e6a: 20        pop   X
  0e6b: 18        pop   A
  0e6c: 53 fd     mov   [SROM_Reserved1],A
  0e6e: 55 ff 01  mov   [SROM_Reserved],001h
  0e71: 3c f8 00  cmp   [SROM_Key1],000h
  0e74: a0 04     jz    0e79h
  0e76: 55 ff 00  mov   [SROM_Reserved],000h
  0e79: 65 fd     asl   [SROM_Reserved1]
  0e7b: 3c fd 10  cmp   [SROM_Reserved1],010h
  0e7e: b0 11     jnz   0e90h
  0e80: 18        pop   A
  0e81: 71 10     or    F,010h
  0e83: 60 e0     mov   reg[OSC_CR0],A
  0e85: 70 ef     and   F,0efh
  0e87: 65 fd     asl   [SROM_Reserved1]
  0e89: 51 ff     mov   A,[SROM_Reserved]
  0e8b: 3c fd 20  cmp   [SROM_Reserved1],020h
  0e8e: a0 04     jz    0e93h
  0e90: 30        halt
  0e91: 8f fe     jmp   0e90h
  0e93: 70 3f     and   F,03fh ; Paging mode changed from 2 to 0
  0e95: 71 c0     or    F,0c0h ; Paging mode changed from 0 to 3
  0e97: 62 d0 00  mov   reg[CUR_PP],000h
  0e9a: 62 d5 00  mov   reg[MVW_PP],000h
  0e9d: 62 d4 00  mov   reg[MVR_PP],000h
  0ea0: 7e        reti

  0ea1: 30        halt
  0ea2: 30        halt
  0ea3: 30        halt
  0ea4: 55 fa 03  mov   [SROM_BlockID],003h
  0ea7: 62 d5 00  mov   reg[MVW_PP],000h
  0eaa: 71 10     or    F,010h
  0eac: 62 fa 00  mov   reg[NOT_USED],000h
  0eaf: 70 ef     and   F,0efh
  0eb1: 51 fd     mov   A,[SROM_Reserved1]
  0eb3: 39 02     cmp   A,002h
  0eb5: bf da     jnz   0e90h
  0eb7: 08        push  A
  0eb8: 10        push  X
_FlashBlockLocal3:
  0eb9: 4f        mov   X,SP
  0eba: 5b        mov   A,X
  0ebb: 01 03     add   A,003h
  0ebd: 53 f9     mov   [SROM_Key2],A
  0ebf: 55 f8 3a  mov   [SROM_Key1],03ah
  0ec2: 50 06     mov   A,006h
  0ec4: 00        ssc
  0ec5: 20        pop   X
  0ec6: 3c ff 01  cmp   [SROM_Reserved],001h
  0ec9: b0 75     jnz   0f3fh
  0ecb: 10        push  X
  0ecc: 5d d3     mov   A,reg[IDX_PP]
  0ece: 08        push  A
  0ecf: 52 04     mov   A,[X+ADCINC_iResult]
  0ed1: 60 e8     mov   reg[MUL0_X],A
  0ed3: 21 80     and   A,080h
  0ed5: b0 09     jnz   0edfh
  0ed7: 51 fd     mov   A,[SROM_Reserved1]
  0ed9: 54 07     mov   [X+007h],A
  0edb: 57 fb     mov   X,0fbh
  0edd: 80 07     jmp   0ee5h
  0edf: 51 fa     mov   A,[SROM_BlockID]
  0ee1: 54 07     mov   [X+007h],A
  0ee3: 57 f8     mov   X,0f8h
  0ee5: 62 d3 00  mov   reg[IDX_PP],000h
  0ee8: 52 00     mov   A,[X+__data_start] ; or possibly _fillerBuffer1, _globalSystemFlags
  0eea: 60 e9     mov   reg[MUL0_Y],A
  0eec: 5d eb     mov   A,reg[MUL0_DL]
  0eee: 64        asl   A
  0eef: 5d ea     mov   A,reg[MUL0_DH]
  0ef1: 6a        rlc   A
  0ef2: 73        cpl   A
  0ef3: 74        inc   A
  0ef4: 03 01     add   A,[X+001h] ; or possibly Port_2_Data_SHADE, _Port_2_Data_SHADE
  0ef6: 53 fe     mov   [SROM_DELAY],A
  0ef8: 21 7f     and   A,07fh
  0efa: 60 e8     mov   reg[MUL0_X],A
  0efc: 52 02     mov   A,[X+_Port_3_Data_SHADE]
  0efe: 67        asr   A
  0eff: 21 7f     and   A,07fh
  0f01: 60 e9     mov   reg[MUL0_Y],A
  0f03: 5d ea     mov   A,reg[MUL0_DH]
  0f05: 53 ff     mov   [SROM_Reserved],A
  0f07: 5d eb     mov   A,reg[MUL0_DL]
  0f09: 64        asl   A
  0f0a: 6b ff     rlc   [SROM_Reserved]
  0f0c: 48 02 01  tst   [X+002h],001h ; or possibly Port_3_Data_SHADE, _Port_3_Data_SHADE
  0f0f: a0 06     jz    0f16h
  0f11: 02 fe     add   A,[SROM_DELAY]
  0f13: 0e ff 00  adc   [SROM_Reserved],000h
  0f16: 64        asl   A
  0f17: 6b ff     rlc   [SROM_Reserved]
  0f19: 64        asl   A
  0f1a: 6b ff     rlc   [SROM_Reserved]
  0f1c: 18        pop   A
  0f1d: 60 d3     mov   reg[IDX_PP],A
  0f1f: 51 ff     mov   A,[SROM_Reserved]
  0f21: 20        pop   X
  0f22: 54 06     mov   [X+006h],A
  0f24: 51 fe     mov   A,[SROM_DELAY]
  0f26: 54 05     mov   [X+005h],A
  0f28: 49 fe 10  tst   reg[CPU_SCR1],010h
  0f2b: a0 09     jz    0f35h
  0f2d: 69 06     asr   [X+006h]
  0f2f: 77 06     inc   [X+006h]
  0f31: 69 05     asr   [X+005h]
  0f33: 77 05     inc   [X+005h]
  0f35: 18        pop   A
  0f36: 39 02     cmp   A,002h
  0f38: bf 57     jnz   0e90h
  0f3a: 53 fd     mov   [SROM_Reserved1],A
  0f3c: 50 00     mov   A,000h
  0f3e: 7f        ret

  0f3f: 18        pop   A
  0f40: 39 02     cmp   A,002h
  0f42: bf 4d     jnz   0e90h
  0f44: 53 fd     mov   [SROM_Reserved1],A
  0f46: 50 01     mov   A,001h
  0f48: 7f        ret

_FlashReadBlock:
FlashReadBlock:
  0f49: 62 d0 00  mov   reg[CUR_PP],000h
  0f4c: 53 f8     mov   [SROM_Key1],A
  0f4e: 5d f7     mov   A,reg[CPU_F]
  0f50: 08        push  A
  0f51: 21 c0     and   A,0c0h
  0f53: b0 07     jnz   0f5bh
  0f55: 56 02 00  mov   [X+_Port_3_Data_SHADE],000h
  0f58: 55 f8 00  mov   [SROM_Key1],000h
  0f5b: 51 f8     mov   A,[SROM_Key1]
  0f5d: 70 bf     and   F,0bfh ; Paging mode changed from 3 to 2
  0f5f: 60 d3     mov   reg[IDX_PP],A
  0f61: 52 03     mov   A,[X+Port_5_Data_SHADE]
  0f63: 53 fb     mov   [SROM_Pointer],A
  0f65: 52 02     mov   A,[X+_Port_3_Data_SHADE]
  0f67: 60 d5     mov   reg[MVW_PP],A
  0f69: 52 04     mov   A,[X+ADCINC_iResult]
  0f6b: 74        inc   A
  0f6c: 53 fd     mov   [SROM_Reserved1],A
  0f6e: 52 05     mov   A,[X+005h]
  0f70: 53 fe     mov   [SROM_DELAY],A
  0f72: 52 01     mov   A,[X+_Port_2_Data_SHADE]
  0f74: 64        asl   A
  0f75: 6c 00     rlc   [X+__data_start] ; or possibly _fillerBuffer1, _globalSystemFlags
  0f77: 64        asl   A
  0f78: 6c 00     rlc   [X+__data_start] ; or possibly _fillerBuffer1, _globalSystemFlags
  0f7a: 64        asl   A
  0f7b: 6c 00     rlc   [X+__data_start] ; or possibly _fillerBuffer1, _globalSystemFlags
  0f7d: 64        asl   A
  0f7e: 6c 00     rlc   [X+__data_start] ; or possibly _fillerBuffer1, _globalSystemFlags
  0f80: 64        asl   A
  0f81: 6c 00     rlc   [X+__data_start] ; or possibly _fillerBuffer1, _globalSystemFlags
  0f83: 64        asl   A
  0f84: 6c 00     rlc   [X+__data_start] ; or possibly _fillerBuffer1, _globalSystemFlags
  0f86: 08        push  A
  0f87: 52 00     mov   A,[X+__data_start] ; or possibly _fillerBuffer1, _globalSystemFlags
  0f89: 20        pop   X
  0f8a: 08        push  A
  0f8b: 28        romx
  0f8c: 3f fb     mvi   [[SROM_Pointer]++],A
  0f8e: 18        pop   A
  0f8f: 75        inc   X
  0f90: b0 02     jnz   0f93h
  0f92: 74        inc   A
  0f93: 7a fe     dec   [SROM_DELAY]
  0f95: b0 05     jnz   0f9bh
  0f97: 7a fd     dec   [SROM_Reserved1]
  0f99: a0 0f     jz    0fa9h
  0f9b: 3c fb 00  cmp   [SROM_Pointer],000h
  0f9e: bf eb     jnz   0f8ah
  0fa0: 08        push  A
  0fa1: 5d d5     mov   A,reg[MVW_PP]
  0fa3: 74        inc   A
  0fa4: 60 d5     mov   reg[MVW_PP],A
  0fa6: 18        pop   A
  0fa7: 8f e2     jmp   0f8ah
  0fa9: 70 3f     and   F,03fh ; Paging mode changed from 2 to 0
  0fab: 71 c0     or    F,0c0h ; Paging mode changed from 0 to 3
  0fad: 62 d0 00  mov   reg[CUR_PP],000h
  0fb0: 62 d5 00  mov   reg[MVW_PP],000h
  0fb3: 7e        reti

__UserModules_end:
__text_start:
_cmemcpy:
  0fb4: 10        push  X
  0fb5: 4f        mov   X,SP
  0fb6: 38 04     add   SP,004h
  0fb8: 52 fc     mov   A,[X+SROM_Clock]
  0fba: 54 01     mov   [X+_Port_2_Data_SHADE],A
  0fbc: 52 fb     mov   A,[X+SROM_Pointer]
  0fbe: 54 00     mov   [X+__data_start],A ; or possibly _fillerBuffer1, _globalSystemFlags
  0fc0: 52 fa     mov   A,[X+SROM_BlockID]
  0fc2: 54 03     mov   [X+Port_5_Data_SHADE],A
  0fc4: 52 f9     mov   A,[X+SROM_Key2]
  0fc6: 54 02     mov   [X+_Port_3_Data_SHADE],A
  0fc8: 80 3d     jmp   1006h
  0fca: 62 d0 00  mov   reg[CUR_PP],000h
  0fcd: 52 01     mov   A,[X+_Port_2_Data_SHADE]
  0fcf: 53 ec     mov   [__r1],A
  0fd1: 52 00     mov   A,[X+__data_start] ; or possibly _fillerBuffer1, _globalSystemFlags
  0fd3: 53 ed     mov   [__r0],A
  0fd5: 51 ec     mov   A,[__r1]
  0fd7: 01 01     add   A,001h
  0fd9: 54 01     mov   [X+_Port_2_Data_SHADE],A
  0fdb: 51 ed     mov   A,[__r0]
  0fdd: 09 00     adc   A,000h
  0fdf: 54 00     mov   [X+__data_start],A ; or possibly _fillerBuffer1, _globalSystemFlags
  0fe1: 52 03     mov   A,[X+Port_5_Data_SHADE]
  0fe3: 53 ea     mov   [__r3],A
  0fe5: 52 02     mov   A,[X+_Port_3_Data_SHADE]
  0fe7: 53 eb     mov   [__r2],A
  0fe9: 51 ea     mov   A,[__r3]
  0feb: 01 01     add   A,001h
  0fed: 54 03     mov   [X+Port_5_Data_SHADE],A
  0fef: 51 eb     mov   A,[__r2]
  0ff1: 09 00     adc   A,000h
  0ff3: 54 02     mov   [X+_Port_3_Data_SHADE],A
  0ff5: 51 eb     mov   A,[__r2]
  0ff7: 10        push  X
  0ff8: 58 ea     mov   X,[__r3]
  0ffa: 28        romx
  0ffb: 20        pop   X
  0ffc: 53 eb     mov   [__r2],A
  0ffe: 51 ed     mov   A,[__r0]
  1000: 60 d5     mov   reg[MVW_PP],A
  1002: 51 eb     mov   A,[__r2]
  1004: 3f ec     mvi   [[__r1]++],A
  1006: 62 d0 00  mov   reg[CUR_PP],000h
  1009: 52 f8     mov   A,[X+SROM_Key1]
  100b: 53 ec     mov   [__r1],A
  100d: 52 f7     mov   A,[X+0f7h]
  100f: 53 ed     mov   [__r0],A
  1011: 51 ec     mov   A,[__r1]
  1013: 11 01     sub   A,001h
  1015: 54 f8     mov   [X+SROM_Key1],A
  1017: 51 ed     mov   A,[__r0]
  1019: 19 00     sbb   A,000h
  101b: 54 f7     mov   [X+0f7h],A
  101d: 3c ed 00  cmp   [__r0],000h
  1020: bf a9     jnz   0fcah
  1022: 3c ec 00  cmp   [__r1],000h
  1025: bf a4     jnz   0fcah
  1027: 62 d0 00  mov   reg[CUR_PP],000h
  102a: 52 fc     mov   A,[X+SROM_Clock]
  102c: 53 ec     mov   [__r1],A
  102e: 52 fb     mov   A,[X+SROM_Pointer]
  1030: 53 ed     mov   [__r0],A
  1032: 38 fc     add   SP,0fch
  1034: 20        pop   X
  1035: 7f        ret

_loadSystemConfig:
  1036: 10        push  X
  1037: 50 00     mov   A,000h
  1039: 08        push  A
  103a: 50 0a     mov   A,00ah
  103c: 08        push  A
  103d: 50 00     mov   A,000h
  103f: 08        push  A
  1040: 50 ee     mov   A,0eeh
  1042: 08        push  A
  1043: 50 01     mov   A,001h
  1045: 08        push  A
  1046: 50 00     mov   A,000h
  1048: 08        push  A
  1049: 7c 08 b8  lcall E2PROM_E2Read
  104c: 38 fa     add   SP,0fah
  104e: 20        pop   X
  104f: 7f        ret

_updateSystemConfig:
  1050: 10        push  X
  1051: 50 19     mov   A,019h
  1053: 08        push  A
  1054: 50 00     mov   A,000h
  1056: 08        push  A
  1057: 50 0a     mov   A,00ah
  1059: 08        push  A
  105a: 50 00     mov   A,000h
  105c: 08        push  A
  105d: 50 ee     mov   A,0eeh
  105f: 08        push  A
  1060: 50 01     mov   A,001h
  1062: 08        push  A
  1063: 50 00     mov   A,000h
  1065: 08        push  A
  1066: 7c 08 ac  lcall E2PROM_bE2Write
  1069: 62 d0 00  mov   reg[CUR_PP],000h
  106c: 38 f9     add   SP,0f9h
  106e: 20        pop   X
  106f: 7f        ret

_loadDefaultSystemConfig:
  1070: 10        push  X
  1071: 4f        mov   X,SP
  1072: 38 1c     add   SP,01ch
  1074: 10        push  X
  1075: 50 00     mov   A,000h
  1077: 08        push  A
  1078: 50 1c     mov   A,01ch
  107a: 08        push  A
  107b: 62 d0 00  mov   reg[CUR_PP],000h
  107e: 50 03     mov   A,003h
  1080: 08        push  A
  1081: 10        push  X
  1082: 50 01     mov   A,001h
  1084: 08        push  A
  1085: 50 40     mov   A,040h
  1087: 08        push  A
  1088: 7c 08 b8  lcall E2PROM_E2Read
  108b: 38 fa     add   SP,0fah
  108d: 20        pop   X
  108e: 50 00     mov   A,000h
  1090: 08        push  A
  1091: 50 08     mov   A,008h
  1093: 08        push  A
  1094: 62 d0 00  mov   reg[CUR_PP],000h
  1097: 5a ec     mov   [__r1],X
  1099: 06 ec 04  add   [__r1],004h
  109c: 50 03     mov   A,003h
  109e: 08        push  A
  109f: 51 ec     mov   A,[__r1]
  10a1: 08        push  A
  10a2: 50 00     mov   A,000h
  10a4: 08        push  A
  10a5: 50 ee     mov   A,0eeh
  10a7: 08        push  A
  10a8: 7c 2d 63  lcall _memcpyLMM
  10ab: 38 fa     add   SP,0fah
  10ad: 62 d0 00  mov   reg[CUR_PP],000h
  10b0: 55 f6 01  mov   [0f6h],001h
  10b3: 55 f7 01  mov   [0f7h],001h
  10b6: 9f 98     call  104fh
  10b8: 38 e4     add   SP,0e4h
  10ba: 20        pop   X
  10bb: 7f        ret

_loadDefaultUsers:
  10bc: 10        push  X
  10bd: 4f        mov   X,SP
  10be: 38 1c     add   SP,01ch
  10c0: 92 95     call  1356h
  10c2: 10        push  X
  10c3: 50 00     mov   A,000h
  10c5: 08        push  A
  10c6: 50 1c     mov   A,01ch
  10c8: 08        push  A
  10c9: 62 d0 00  mov   reg[CUR_PP],000h
  10cc: 50 03     mov   A,003h
  10ce: 08        push  A
  10cf: 10        push  X
  10d0: 50 01     mov   A,001h
  10d2: 08        push  A
  10d3: 50 40     mov   A,040h
  10d5: 08        push  A
  10d6: 7c 08 b8  lcall E2PROM_E2Read
  10d9: 38 fa     add   SP,0fah
  10db: 20        pop   X
  10dc: 62 d0 00  mov   reg[CUR_PP],000h
  10df: 5a ec     mov   [__r1],X
  10e1: 06 ec 0c  add   [__r1],00ch
  10e4: 50 03     mov   A,003h
  10e6: 08        push  A
  10e7: 51 ec     mov   A,[__r1]
  10e9: 08        push  A
  10ea: 50 00     mov   A,000h
  10ec: 08        push  A
  10ed: 92 00     call  12eeh
  10ef: 62 d0 00  mov   reg[CUR_PP],000h
  10f2: 5a ec     mov   [__r1],X
  10f4: 06 ec 14  add   [__r1],014h
  10f7: 50 03     mov   A,003h
  10f9: 08        push  A
  10fa: 51 ec     mov   A,[__r1]
  10fc: 08        push  A
  10fd: 50 01     mov   A,001h
  10ff: 08        push  A
  1100: 91 ed     call  12eeh
  1102: 38 fa     add   SP,0fah
  1104: 38 e4     add   SP,0e4h
  1106: 20        pop   X
  1107: 7f        ret

_loadDefaultFactoryDefaults:
  1108: 10        push  X
  1109: 4f        mov   X,SP
  110a: 38 1c     add   SP,01ch
  110c: 10        push  X
  110d: 50 00     mov   A,000h
  110f: 08        push  A
  1110: 50 1c     mov   A,01ch
  1112: 08        push  A
  1113: 62 d0 00  mov   reg[CUR_PP],000h
  1116: 50 03     mov   A,003h
  1118: 08        push  A
  1119: 10        push  X
  111a: 50 01     mov   A,001h
  111c: 08        push  A
  111d: 50 40     mov   A,040h
  111f: 08        push  A
  1120: 7c 08 b8  lcall E2PROM_E2Read
  1123: 38 fa     add   SP,0fah
  1125: 20        pop   X
  1126: 3d 00 ca  cmp   [X+000h],0cah ; or possibly Port_1_Data_SHADE, NO_SHADOW, _NO_SHADOW, _Port_1_Data_SHADE, __data_start, _fillerBuffer1, _globalSystemFlags
  1129: b0 10     jnz   113ah
  112b: 3d 01 fe  cmp   [X+001h],0feh ; or possibly Port_2_Data_SHADE, _Port_2_Data_SHADE
  112e: b0 0b     jnz   113ah
  1130: 3d 02 ba  cmp   [X+002h],0bah ; or possibly Port_3_Data_SHADE, _Port_3_Data_SHADE
  1133: b0 06     jnz   113ah
  1135: 3d 03 be  cmp   [X+003h],0beh ; or possibly _Port_5_Data_SHADE, Port_5_Data_SHADE
  1138: a0 89     jz    11c2h
  113a: 56 00 ca  mov   [X+__data_start],0cah ; or possibly _fillerBuffer1, _globalSystemFlags
  113d: 56 01 fe  mov   [X+_Port_2_Data_SHADE],0feh
  1140: 56 02 ba  mov   [X+_Port_3_Data_SHADE],0bah
  1143: 56 03 be  mov   [X+Port_5_Data_SHADE],0beh
  1146: 50 00     mov   A,000h
  1148: 08        push  A
  1149: 50 08     mov   A,008h
  114b: 08        push  A
  114c: 50 02     mov   A,002h
  114e: 08        push  A
  114f: 50 ac     mov   A,0ach
  1151: 08        push  A
  1152: 62 d0 00  mov   reg[CUR_PP],000h
  1155: 5a ec     mov   [__r1],X
  1157: 06 ec 04  add   [__r1],004h
  115a: 50 03     mov   A,003h
  115c: 08        push  A
  115d: 51 ec     mov   A,[__r1]
  115f: 08        push  A
  1160: 9e 52     call  0fb3h
  1162: 38 fa     add   SP,0fah
  1164: 50 00     mov   A,000h
  1166: 08        push  A
  1167: 50 08     mov   A,008h
  1169: 08        push  A
  116a: 50 02     mov   A,002h
  116c: 08        push  A
  116d: 50 a3     mov   A,0a3h
  116f: 08        push  A
  1170: 62 d0 00  mov   reg[CUR_PP],000h
  1173: 5a ec     mov   [__r1],X
  1175: 06 ec 0c  add   [__r1],00ch
  1178: 50 03     mov   A,003h
  117a: 08        push  A
  117b: 51 ec     mov   A,[__r1]
  117d: 08        push  A
  117e: 9e 34     call  0fb3h
  1180: 50 00     mov   A,000h
  1182: 08        push  A
  1183: 50 08     mov   A,008h
  1185: 08        push  A
  1186: 50 02     mov   A,002h
  1188: 08        push  A
  1189: 50 9a     mov   A,09ah
  118b: 08        push  A
  118c: 62 d0 00  mov   reg[CUR_PP],000h
  118f: 5a ec     mov   [__r1],X
  1191: 06 ec 14  add   [__r1],014h
  1194: 50 03     mov   A,003h
  1196: 08        push  A
  1197: 51 ec     mov   A,[__r1]
  1199: 08        push  A
  119a: 9e 18     call  0fb3h
  119c: 38 f4     add   SP,0f4h
  119e: 10        push  X
  119f: 50 19     mov   A,019h
  11a1: 08        push  A
  11a2: 50 00     mov   A,000h
  11a4: 08        push  A
  11a5: 50 1c     mov   A,01ch
  11a7: 08        push  A
  11a8: 62 d0 00  mov   reg[CUR_PP],000h
  11ab: 50 03     mov   A,003h
  11ad: 08        push  A
  11ae: 10        push  X
  11af: 50 01     mov   A,001h
  11b1: 08        push  A
  11b2: 50 40     mov   A,040h
  11b4: 08        push  A
  11b5: 7c 08 ac  lcall E2PROM_bE2Write
  11b8: 62 d0 00  mov   reg[CUR_PP],000h
  11bb: 38 f9     add   SP,0f9h
  11bd: 20        pop   X
  11be: 9e b0     call  106fh
  11c0: 9e fa     call  10bbh
  11c2: 38 e4     add   SP,0e4h
  11c4: 20        pop   X
  11c5: 7f        ret

_searchUserCode:
  11c6: 10        push  X
  11c7: 4f        mov   X,SP
  11c8: 38 09     add   SP,009h
  11ca: 56 00 00  mov   [X+__data_start],000h ; or possibly _fillerBuffer1, _globalSystemFlags
  11cd: 80 6a     jmp   1238h
  11cf: 10        push  X
  11d0: 50 00     mov   A,000h
  11d2: 08        push  A
  11d3: 50 08     mov   A,008h
  11d5: 08        push  A
  11d6: 62 d0 00  mov   reg[CUR_PP],000h
  11d9: 5a ec     mov   [__r1],X
  11db: 06 ec 01  add   [__r1],001h
  11de: 50 03     mov   A,003h
  11e0: 08        push  A
  11e1: 51 ec     mov   A,[__r1]
  11e3: 08        push  A
  11e4: 52 00     mov   A,[X+__data_start] ; or possibly _fillerBuffer1, _globalSystemFlags
  11e6: 53 ec     mov   [__r1],A
  11e8: 55 ed 00  mov   [__r0],000h
  11eb: 65 ec     asl   [__r1]
  11ed: 6b ed     rlc   [__r0]
  11ef: 65 ec     asl   [__r1]
  11f1: 6b ed     rlc   [__r0]
  11f3: 65 ec     asl   [__r1]
  11f5: 6b ed     rlc   [__r0]
  11f7: 51 ed     mov   A,[__r0]
  11f9: 08        push  A
  11fa: 51 ec     mov   A,[__r1]
  11fc: 08        push  A
  11fd: 7c 08 b8  lcall E2PROM_E2Read
  1200: 38 fa     add   SP,0fah
  1202: 20        pop   X
  1203: 50 00     mov   A,000h
  1205: 08        push  A
  1206: 50 08     mov   A,008h
  1208: 08        push  A
  1209: 52 fb     mov   A,[X+SROM_Pointer]
  120b: 08        push  A
  120c: 52 fc     mov   A,[X+SROM_Clock]
  120e: 08        push  A
  120f: 62 d0 00  mov   reg[CUR_PP],000h
  1212: 5a ec     mov   [__r1],X
  1214: 06 ec 01  add   [__r1],001h
  1217: 50 03     mov   A,003h
  1219: 08        push  A
  121a: 51 ec     mov   A,[__r1]
  121c: 08        push  A
  121d: 7c 2d bf  lcall _memcmp
  1220: 38 fa     add   SP,0fah
  1222: 62 d0 00  mov   reg[CUR_PP],000h
  1225: 3c ed 00  cmp   [__r0],000h
  1228: b0 0d     jnz   1236h
  122a: 3c ec 00  cmp   [__r1],000h
  122d: b0 08     jnz   1236h
  122f: 52 00     mov   A,[X+__data_start] ; or possibly _fillerBuffer1, _globalSystemFlags
  1231: 62 d0 00  mov   reg[CUR_PP],000h
  1234: 80 0d     jmp   1242h
  1236: 77 00     inc   [X+__data_start] ; or possibly _fillerBuffer1, _globalSystemFlags
  1238: 3d 00 14  cmp   [X+000h],014h ; or possibly Port_1_Data_SHADE, NO_SHADOW, _NO_SHADOW, _Port_1_Data_SHADE, __data_start, _fillerBuffer1, _globalSystemFlags
  123b: cf 93     jc    11cfh
  123d: 62 d0 00  mov   reg[CUR_PP],000h
  1240: 50 15     mov   A,015h
  1242: 38 f7     add   SP,0f7h
  1244: 20        pop   X
  1245: 7f        ret

_validateMasterCode:
  1246: 10        push  X
  1247: 4f        mov   X,SP
  1248: 38 0a     add   SP,00ah
  124a: 10        push  X
  124b: 50 00     mov   A,000h
  124d: 08        push  A
  124e: 50 08     mov   A,008h
  1250: 08        push  A
  1251: 62 d0 00  mov   reg[CUR_PP],000h
  1254: 50 03     mov   A,003h
  1256: 08        push  A
  1257: 10        push  X
  1258: 50 01     mov   A,001h
  125a: 08        push  A
  125b: 50 00     mov   A,000h
  125d: 08        push  A
  125e: 7c 08 b8  lcall E2PROM_E2Read
  1261: 38 fa     add   SP,0fah
  1263: 20        pop   X
  1264: 50 00     mov   A,000h
  1266: 08        push  A
  1267: 50 08     mov   A,008h
  1269: 08        push  A
  126a: 52 fb     mov   A,[X+SROM_Pointer]
  126c: 08        push  A
  126d: 52 fc     mov   A,[X+SROM_Clock]
  126f: 08        push  A
  1270: 62 d0 00  mov   reg[CUR_PP],000h
  1273: 50 03     mov   A,003h
  1275: 08        push  A
  1276: 10        push  X
  1277: 7c 2d bf  lcall _memcmp
  127a: 38 fa     add   SP,0fah
  127c: 62 d0 00  mov   reg[CUR_PP],000h
  127f: 3c ed 00  cmp   [__r0],000h
  1282: b0 0e     jnz   1291h
  1284: 3c ec 00  cmp   [__r1],000h
  1287: b0 09     jnz   1291h
  1289: 56 09 01  mov   [X+_ADCINC_bState],001h
  128c: 56 08 00  mov   [X+_ADCINC_fStatus],000h
  128f: 80 07     jmp   1297h
  1291: 56 09 00  mov   [X+_ADCINC_bState],000h
  1294: 56 08 00  mov   [X+_ADCINC_fStatus],000h
  1297: 62 d0 00  mov   reg[CUR_PP],000h
  129a: 52 09     mov   A,[X+_ADCINC_bState]
  129c: 38 f6     add   SP,0f6h
  129e: 20        pop   X
  129f: 7f        ret

_updateMasterCode:
  12a0: 10        push  X
  12a1: 4f        mov   X,SP
  12a2: 10        push  X
  12a3: 50 19     mov   A,019h
  12a5: 08        push  A
  12a6: 50 00     mov   A,000h
  12a8: 08        push  A
  12a9: 50 08     mov   A,008h
  12ab: 08        push  A
  12ac: 52 fb     mov   A,[X+SROM_Pointer]
  12ae: 08        push  A
  12af: 52 fc     mov   A,[X+SROM_Clock]
  12b1: 08        push  A
  12b2: 50 01     mov   A,001h
  12b4: 08        push  A
  12b5: 50 00     mov   A,000h
  12b7: 08        push  A
  12b8: 7c 08 ac  lcall E2PROM_bE2Write
  12bb: 62 d0 00  mov   reg[CUR_PP],000h
  12be: 38 f9     add   SP,0f9h
  12c0: 20        pop   X
  12c1: 20        pop   X
  12c2: 7f        ret

_validateUserCode:
  12c3: 10        push  X
  12c4: 4f        mov   X,SP
  12c5: 38 02     add   SP,002h
  12c7: 52 fb     mov   A,[X+SROM_Pointer]
  12c9: 08        push  A
  12ca: 52 fc     mov   A,[X+SROM_Clock]
  12cc: 08        push  A
  12cd: 9e f7     call  11c5h
  12cf: 38 fe     add   SP,0feh
  12d1: 62 d0 00  mov   reg[CUR_PP],000h
  12d4: 39 15     cmp   A,015h
  12d6: b0 09     jnz   12e0h
  12d8: 56 01 00  mov   [X+_Port_2_Data_SHADE],000h
  12db: 56 00 00  mov   [X+__data_start],000h ; or possibly _fillerBuffer1, _globalSystemFlags
  12de: 80 07     jmp   12e6h
  12e0: 56 01 01  mov   [X+_Port_2_Data_SHADE],001h
  12e3: 56 00 00  mov   [X+__data_start],000h ; or possibly _fillerBuffer1, _globalSystemFlags
  12e6: 62 d0 00  mov   reg[CUR_PP],000h
  12e9: 52 01     mov   A,[X+_Port_2_Data_SHADE]
  12eb: 38 fe     add   SP,0feh
  12ed: 20        pop   X
  12ee: 7f        ret

_updateUserCode:
  12ef: 10        push  X
  12f0: 4f        mov   X,SP
  12f1: 3d fc 14  cmp   [X+0fch],014h ; or possibly SROM_Clock
  12f4: d0 36     jnc   132bh
  12f6: 10        push  X
  12f7: 50 19     mov   A,019h
  12f9: 08        push  A
  12fa: 50 00     mov   A,000h
  12fc: 08        push  A
  12fd: 50 08     mov   A,008h
  12ff: 08        push  A
  1300: 52 fa     mov   A,[X+SROM_BlockID]
  1302: 08        push  A
  1303: 52 fb     mov   A,[X+SROM_Pointer]
  1305: 08        push  A
  1306: 62 d0 00  mov   reg[CUR_PP],000h
  1309: 52 fc     mov   A,[X+SROM_Clock]
  130b: 53 ec     mov   [__r1],A
  130d: 55 ed 00  mov   [__r0],000h
  1310: 65 ec     asl   [__r1]
  1312: 6b ed     rlc   [__r0]
  1314: 65 ec     asl   [__r1]
  1316: 6b ed     rlc   [__r0]
  1318: 65 ec     asl   [__r1]
  131a: 6b ed     rlc   [__r0]
  131c: 51 ed     mov   A,[__r0]
  131e: 08        push  A
  131f: 51 ec     mov   A,[__r1]
  1321: 08        push  A
  1322: 7c 08 ac  lcall E2PROM_bE2Write
  1325: 62 d0 00  mov   reg[CUR_PP],000h
  1328: 38 f9     add   SP,0f9h
  132a: 20        pop   X
  132b: 20        pop   X
  132c: 7f        ret

_deleteUser:
  132d: 10        push  X
  132e: 4f        mov   X,SP
  132f: 38 08     add   SP,008h
  1331: 50 00     mov   A,000h
  1333: 08        push  A
  1334: 50 08     mov   A,008h
  1336: 08        push  A
  1337: 50 00     mov   A,000h
  1339: 08        push  A
  133a: 08        push  A
  133b: 62 d0 00  mov   reg[CUR_PP],000h
  133e: 50 03     mov   A,003h
  1340: 08        push  A
  1341: 10        push  X
  1342: 7c 2d 91  lcall _memsetLMM
  1345: 62 d0 00  mov   reg[CUR_PP],000h
  1348: 50 03     mov   A,003h
  134a: 08        push  A
  134b: 10        push  X
  134c: 52 fc     mov   A,[X+SROM_Clock]
  134e: 08        push  A
  134f: 9f 9e     call  12eeh
  1351: 38 f7     add   SP,0f7h
  1353: 38 f8     add   SP,0f8h
  1355: 20        pop   X
  1356: 7f        ret

_deleteAllUsers:
  1357: 10        push  X
  1358: 4f        mov   X,SP
  1359: 38 01     add   SP,001h
  135b: 56 00 00  mov   [X+__data_start],000h ; or possibly _fillerBuffer1, _globalSystemFlags
  135e: 80 0a     jmp   1369h
  1360: 52 00     mov   A,[X+__data_start] ; or possibly _fillerBuffer1, _globalSystemFlags
  1362: 08        push  A
  1363: 9f c8     call  132ch
  1365: 38 ff     add   SP,0ffh
  1367: 77 00     inc   [X+__data_start] ; or possibly _fillerBuffer1, _globalSystemFlags
  1369: 3d 00 14  cmp   [X+000h],014h ; or possibly Port_1_Data_SHADE, NO_SHADOW, _NO_SHADOW, _Port_1_Data_SHADE, __data_start, _fillerBuffer1, _globalSystemFlags
  136c: cf f3     jc    1360h
  136e: 38 ff     add   SP,0ffh
  1370: 20        pop   X
  1371: 7f        ret

_findEmptyUserSlot:
  1372: 10        push  X
  1373: 4f        mov   X,SP
  1374: 38 08     add   SP,008h
  1376: 50 00     mov   A,000h
  1378: 08        push  A
  1379: 50 08     mov   A,008h
  137b: 08        push  A
  137c: 50 00     mov   A,000h
  137e: 08        push  A
  137f: 08        push  A
  1380: 62 d0 00  mov   reg[CUR_PP],000h
  1383: 50 03     mov   A,003h
  1385: 08        push  A
  1386: 10        push  X
  1387: 7c 2d 91  lcall _memsetLMM
  138a: 62 d0 00  mov   reg[CUR_PP],000h
  138d: 50 03     mov   A,003h
  138f: 08        push  A
  1390: 10        push  X
  1391: 9e 33     call  11c5h
  1393: 38 f8     add   SP,0f8h
  1395: 62 d0 00  mov   reg[CUR_PP],000h
  1398: 38 f8     add   SP,0f8h
  139a: 20        pop   X
  139b: 7f        ret

_convertKey:
  139c: 10        push  X
  139d: 4f        mov   X,SP
  139e: 38 02     add   SP,002h
  13a0: 52 fc     mov   A,[X+SROM_Clock]
  13a2: 54 01     mov   [X+_Port_2_Data_SHADE],A
  13a4: 56 00 00  mov   [X+__data_start],000h ; or possibly _fillerBuffer1, _globalSystemFlags
  13a7: 52 01     mov   A,[X+_Port_2_Data_SHADE]
  13a9: 11 28     sub   A,028h
  13ab: 62 d0 00  mov   reg[CUR_PP],000h
  13ae: 53 e0     mov   [__rY],A
  13b0: 52 00     mov   A,[X+__data_start] ; or possibly _fillerBuffer1, _globalSystemFlags
  13b2: 31 80     xor   A,080h
  13b4: 19 80     sbb   A,080h
  13b6: 2a e0     or    A,[__rY]
  13b8: a0 85     jz    143eh
  13ba: d0 17     jnc   13d2h
  13bc: 3d 00 00  cmp   [X+000h],000h ; or possibly Port_1_Data_SHADE, NO_SHADOW, _NO_SHADOW, _Port_1_Data_SHADE, __data_start, _fillerBuffer1, _globalSystemFlags
  13bf: b0 06     jnz   13c6h
  13c1: 3d 01 22  cmp   [X+001h],022h ; or possibly Port_2_Data_SHADE, _Port_2_Data_SHADE
  13c4: a0 a3     jz    1468h
  13c6: 3d 00 00  cmp   [X+000h],000h ; or possibly Port_1_Data_SHADE, NO_SHADOW, _NO_SHADOW, _Port_1_Data_SHADE, __data_start, _fillerBuffer1, _globalSystemFlags
  13c9: b0 06     jnz   13d0h
  13cb: 3d 01 24  cmp   [X+001h],024h ; or possibly Port_2_Data_SHADE, _Port_2_Data_SHADE
  13ce: a0 84     jz    1453h
  13d0: 80 ac     jmp   147dh
  13d2: 3d 00 00  cmp   [X+000h],000h ; or possibly Port_1_Data_SHADE, NO_SHADOW, _NO_SHADOW, _Port_1_Data_SHADE, __data_start, _fillerBuffer1, _globalSystemFlags
  13d5: b0 06     jnz   13dch
  13d7: 3d 01 41  cmp   [X+001h],041h ; or possibly Port_2_Data_SHADE, _Port_2_Data_SHADE
  13da: a0 94     jz    146fh
  13dc: 3d 00 00  cmp   [X+000h],000h ; or possibly Port_1_Data_SHADE, NO_SHADOW, _NO_SHADOW, _Port_1_Data_SHADE, __data_start, _fillerBuffer1, _globalSystemFlags
  13df: b0 06     jnz   13e6h
  13e1: 3d 01 42  cmp   [X+001h],042h ; or possibly Port_2_Data_SHADE, _Port_2_Data_SHADE
  13e4: a0 7c     jz    1461h
  13e6: 3d 00 00  cmp   [X+000h],000h ; or possibly Port_1_Data_SHADE, NO_SHADOW, _NO_SHADOW, _Port_1_Data_SHADE, __data_start, _fillerBuffer1, _globalSystemFlags
  13e9: b0 06     jnz   13f0h
  13eb: 3d 01 44  cmp   [X+001h],044h ; or possibly Port_2_Data_SHADE, _Port_2_Data_SHADE
  13ee: a0 5d     jz    144ch
  13f0: 3d 00 00  cmp   [X+000h],000h ; or possibly Port_1_Data_SHADE, NO_SHADOW, _NO_SHADOW, _Port_1_Data_SHADE, __data_start, _fillerBuffer1, _globalSystemFlags
  13f3: b0 06     jnz   13fah
  13f5: 3d 01 48  cmp   [X+001h],048h ; or possibly Port_2_Data_SHADE, _Port_2_Data_SHADE
  13f8: a0 3e     jz    1437h
  13fa: 52 01     mov   A,[X+_Port_2_Data_SHADE]
  13fc: 11 41     sub   A,041h
  13fe: 52 00     mov   A,[X+__data_start] ; or possibly _fillerBuffer1, _globalSystemFlags
  1400: 31 80     xor   A,080h
  1402: 19 80     sbb   A,080h
  1404: c0 78     jc    147dh
  1406: 3d 00 00  cmp   [X+000h],000h ; or possibly Port_1_Data_SHADE, NO_SHADOW, _NO_SHADOW, _Port_1_Data_SHADE, __data_start, _fillerBuffer1, _globalSystemFlags
  1409: b0 06     jnz   1410h
  140b: 3d 01 81  cmp   [X+001h],081h ; or possibly Port_2_Data_SHADE, _Port_2_Data_SHADE
  140e: a0 67     jz    1476h
  1410: 3d 00 00  cmp   [X+000h],000h ; or possibly Port_1_Data_SHADE, NO_SHADOW, _NO_SHADOW, _Port_1_Data_SHADE, __data_start, _fillerBuffer1, _globalSystemFlags
  1413: b0 06     jnz   141ah
  1415: 3d 01 82  cmp   [X+001h],082h ; or possibly Port_2_Data_SHADE, _Port_2_Data_SHADE
  1418: a0 41     jz    145ah
  141a: 3d 00 00  cmp   [X+000h],000h ; or possibly Port_1_Data_SHADE, NO_SHADOW, _NO_SHADOW, _Port_1_Data_SHADE, __data_start, _fillerBuffer1, _globalSystemFlags
  141d: b0 06     jnz   1424h
  141f: 3d 01 84  cmp   [X+001h],084h ; or possibly Port_2_Data_SHADE, _Port_2_Data_SHADE
  1422: a0 22     jz    1445h
  1424: 3d 00 00  cmp   [X+000h],000h ; or possibly Port_1_Data_SHADE, NO_SHADOW, _NO_SHADOW, _Port_1_Data_SHADE, __data_start, _fillerBuffer1, _globalSystemFlags
  1427: b0 06     jnz   142eh
  1429: 3d 01 88  cmp   [X+001h],088h ; or possibly Port_2_Data_SHADE, _Port_2_Data_SHADE
  142c: a0 03     jz    1430h
  142e: 80 4e     jmp   147dh
  1430: 62 d0 00  mov   reg[CUR_PP],000h
  1433: 50 31     mov   A,031h
  1435: 80 4c     jmp   1482h
  1437: 62 d0 00  mov   reg[CUR_PP],000h
  143a: 50 32     mov   A,032h
  143c: 80 45     jmp   1482h
  143e: 62 d0 00  mov   reg[CUR_PP],000h
  1441: 50 33     mov   A,033h
  1443: 80 3e     jmp   1482h
  1445: 62 d0 00  mov   reg[CUR_PP],000h
  1448: 50 34     mov   A,034h
  144a: 80 37     jmp   1482h
  144c: 62 d0 00  mov   reg[CUR_PP],000h
  144f: 50 35     mov   A,035h
  1451: 80 30     jmp   1482h
  1453: 62 d0 00  mov   reg[CUR_PP],000h
  1456: 50 36     mov   A,036h
  1458: 80 29     jmp   1482h
  145a: 62 d0 00  mov   reg[CUR_PP],000h
  145d: 50 37     mov   A,037h
  145f: 80 22     jmp   1482h
  1461: 62 d0 00  mov   reg[CUR_PP],000h
  1464: 50 38     mov   A,038h
  1466: 80 1b     jmp   1482h
  1468: 62 d0 00  mov   reg[CUR_PP],000h
  146b: 50 39     mov   A,039h
  146d: 80 14     jmp   1482h
  146f: 62 d0 00  mov   reg[CUR_PP],000h
  1472: 50 30     mov   A,030h
  1474: 80 0d     jmp   1482h
  1476: 62 d0 00  mov   reg[CUR_PP],000h
  1479: 50 23     mov   A,023h
  147b: 80 06     jmp   1482h
  147d: 62 d0 00  mov   reg[CUR_PP],000h
  1480: 50 00     mov   A,000h
  1482: 38 fe     add   SP,0feh
  1484: 20        pop   X
  1485: 7f        ret

_thumbTurnInLockPosition:
  1486: 71 10     or    F,010h
  1488: 41 0c fc  and   reg[PRT3DM0],0fch
  148b: 5d 0d     mov   A,reg[PRT3DM1]
  148d: 70 cf     and   F,0cfh
  148f: 62 d0 00  mov   reg[CUR_PP],000h
  1492: 53 ed     mov   [__r0],A
  1494: 26 ed fc  and   [__r0],0fch
  1497: 2e ed 01  or    [__r0],001h
  149a: 51 ed     mov   A,[__r0]
  149c: 71 10     or    F,010h
  149e: 60 0d     mov   reg[PRT3DM1],A
  14a0: 70 cf     and   F,0cfh
  14a2: 5d 0f     mov   A,reg[PRT3DM2]
  14a4: 53 ed     mov   [__r0],A
  14a6: 26 ed fc  and   [__r0],0fch
  14a9: 2e ed 01  or    [__r0],001h
  14ac: 51 ed     mov   A,[__r0]
  14ae: 60 0f     mov   reg[PRT3DM2],A
  14b0: 7f        ret

_thumbTurnInUnlockedPosition:
  14b1: 71 10     or    F,010h
  14b3: 41 0c fc  and   reg[PRT3DM0],0fch
  14b6: 5d 0d     mov   A,reg[PRT3DM1]
  14b8: 70 cf     and   F,0cfh
  14ba: 62 d0 00  mov   reg[CUR_PP],000h
  14bd: 53 ed     mov   [__r0],A
  14bf: 26 ed fc  and   [__r0],0fch
  14c2: 2e ed 02  or    [__r0],002h
  14c5: 51 ed     mov   A,[__r0]
  14c7: 71 10     or    F,010h
  14c9: 60 0d     mov   reg[PRT3DM1],A
  14cb: 70 cf     and   F,0cfh
  14cd: 5d 0f     mov   A,reg[PRT3DM2]
  14cf: 53 ed     mov   [__r0],A
  14d1: 26 ed fc  and   [__r0],0fch
  14d4: 2e ed 02  or    [__r0],002h
  14d7: 51 ed     mov   A,[__r0]
  14d9: 60 0f     mov   reg[PRT3DM2],A
  14db: 7f        ret

_thumbTurnTestMode:
  14dc: 71 10     or    F,010h
  14de: 41 0c fc  and   reg[PRT3DM0],0fch
  14e1: 41 0d fc  and   reg[PRT3DM1],0fch
  14e4: 70 cf     and   F,0cfh
  14e6: 41 0f fc  and   reg[PRT3DM2],0fch
  14e9: 7f        ret

_initializeSwitches:
  14ea: 5d 0c     mov   A,reg[PRT3DR]
  14ec: 62 d0 00  mov   reg[CUR_PP],000h
  14ef: 53 ed     mov   [__r0],A
  14f1: 47 ed 03  tst   [__r0],003h
  14f4: a0 0d     jz    1502h
  14f6: 62 d0 00  mov   reg[CUR_PP],000h
  14f9: 55 d8 ff  mov   [0d8h],0ffh
  14fc: 62 d0 02  mov   reg[CUR_PP],002h
  14ff: 55 07 01  mov   [007h],001h
  1502: 7f        ret

_checkThumbTurnChanged:
  1503: 10        push  X
  1504: 4f        mov   X,SP
  1505: 38 06     add   SP,006h
  1507: 62 d0 02  mov   reg[CUR_PP],002h
  150a: 55 0c 00  mov   [00ch],000h ; or possibly _fillerBuffer3
  150d: 3c 08 00  cmp   [008h],000h ; or possibly ADCINC_fStatus, _ADCINC_fStatus
  1510: a1 29     jz    163ah
  1512: 3c 09 00  cmp   [009h],000h ; or possibly ADCINC_bState, _ADCINC_bState
  1515: b1 24     jnz   163ah
  1517: 71 10     or    F,010h
  1519: 5d 0c     mov   A,reg[PRT3DM0]
  151b: 54 00     mov   [X+_globalSystemFlags],A ; or possibly Port_1_Data_SHADE, NO_SHADOW, _NO_SHADOW, _Port_1_Data_SHADE, __data_start, _fillerBuffer1
  151d: 5d 0d     mov   A,reg[PRT3DM1]
  151f: 54 01     mov   [X+001h],A ; or possibly Port_2_Data_SHADE, _Port_2_Data_SHADE
  1521: 70 cf     and   F,0cfh
  1523: 5d 0f     mov   A,reg[PRT3DM2]
  1525: 54 02     mov   [X+002h],A ; or possibly Port_3_Data_SHADE, _Port_3_Data_SHADE
  1527: 9f b3     call  14dbh
  1529: 50 00     mov   A,000h
  152b: 08        push  A
  152c: 50 0a     mov   A,00ah
  152e: 08        push  A
  152f: 93 4f     call  187fh
  1531: 38 fe     add   SP,0feh
  1533: 62 d0 00  mov   reg[CUR_PP],000h
  1536: 5d 0c     mov   A,reg[PRT3DR]
  1538: 53 ed     mov   [__r0],A
  153a: 26 ed 03  and   [__r0],003h
  153d: 51 ed     mov   A,[__r0]
  153f: 54 03     mov   [X+Port_5_Data_SHADE],A
  1541: 62 d0 00  mov   reg[CUR_PP],000h
  1544: 51 d8     mov   A,[0d8h]
  1546: 62 d0 00  mov   reg[CUR_PP],000h
  1549: 3a ed a0  cmp   A,[__r0]
  154c: c8 52     jc    0d9fh
  154e: 03 62     add   A,[X+062h]
  1550: d0 00     jnc   1551h
  1552: 53 d8     mov   [0d8h],A
  1554: 48 03 02  tst   [X+003h],002h ; or possibly _Port_5_Data_SHADE, Port_5_Data_SHADE
  1557: a0 5c     jz    15b4h
  1559: 62 d0 02  mov   reg[CUR_PP],002h
  155c: 3c 04 00  cmp   [004h],000h ; or possibly _ADCINC_iResult, ADCINC_iResult
  155f: a0 06     jz    1566h
  1561: 3c 0d 00  cmp   [00dh],000h
  1564: a0 4f     jz    15b4h
  1566: 62 d0 02  mov   reg[CUR_PP],002h
  1569: 51 0d     mov   A,[00dh]
  156b: 54 04     mov   [X+004h],A ; or possibly _ADCINC_iResult, ADCINC_iResult
  156d: 9f 42     call  14b0h
  156f: 62 d0 02  mov   reg[CUR_PP],002h
  1572: 55 04 01  mov   [004h],001h ; or possibly _ADCINC_iResult, ADCINC_iResult
  1575: 55 0c 01  mov   [00ch],001h ; or possibly _fillerBuffer3
  1578: 55 0d 00  mov   [00dh],000h
  157b: 50 00     mov   A,000h
  157d: 08        push  A
  157e: 7c 26 71  lcall _checkBatteryVoltage
  1581: 38 ff     add   SP,0ffh
  1583: 39 00     cmp   A,000h
  1585: b0 8e     jnz   1614h
  1587: 62 d0 02  mov   reg[CUR_PP],002h
  158a: 51 0e     mov   A,[00eh]
  158c: 54 05     mov   [X+005h],A
  158e: 55 0e 00  mov   [00eh],000h
  1591: 7c 28 af  lcall _motorUnlock
  1594: 3d 04 00  cmp   [X+004h],000h ; or possibly _ADCINC_iResult, ADCINC_iResult
  1597: b0 7c     jnz   1614h
  1599: 3d 05 00  cmp   [X+005h],000h
  159c: a0 0b     jz    15a8h
  159e: 7c 25 8e  lcall _indicateLockoutOccurred
  15a1: 62 d0 00  mov   reg[CUR_PP],000h
  15a4: 39 00     cmp   A,000h
  15a6: b0 0b     jnz   15b2h
  15a8: 7c 25 06  lcall _indicateSuccess
  15ab: 62 d0 00  mov   reg[CUR_PP],000h
  15ae: 39 00     cmp   A,000h
  15b0: a0 63     jz    1614h
  15b2: 8f 74     jmp   1527h
  15b4: 48 03 01  tst   [X+003h],001h ; or possibly _Port_5_Data_SHADE, Port_5_Data_SHADE
  15b7: a0 5c     jz    1614h
  15b9: 62 d0 02  mov   reg[CUR_PP],002h
  15bc: 3c 04 00  cmp   [004h],000h ; or possibly _ADCINC_iResult, ADCINC_iResult
  15bf: b0 06     jnz   15c6h
  15c1: 3c 0d 00  cmp   [00dh],000h
  15c4: a0 4f     jz    1614h
  15c6: 62 d0 02  mov   reg[CUR_PP],002h
  15c9: 51 0d     mov   A,[00dh]
  15cb: 54 04     mov   [X+004h],A ; or possibly _ADCINC_iResult, ADCINC_iResult
  15cd: 9e b7     call  1485h
  15cf: 62 d0 02  mov   reg[CUR_PP],002h
  15d2: 55 04 00  mov   [004h],000h ; or possibly _ADCINC_iResult, ADCINC_iResult
  15d5: 55 0c 01  mov   [00ch],001h ; or possibly _fillerBuffer3
  15d8: 55 0d 00  mov   [00dh],000h
  15db: 50 00     mov   A,000h
  15dd: 08        push  A
  15de: 7c 26 71  lcall _checkBatteryVoltage
  15e1: 38 ff     add   SP,0ffh
  15e3: 39 00     cmp   A,000h
  15e5: b0 2e     jnz   1614h
  15e7: 62 d0 02  mov   reg[CUR_PP],002h
  15ea: 51 0e     mov   A,[00eh]
  15ec: 54 05     mov   [X+005h],A
  15ee: 55 0e 00  mov   [00eh],000h
  15f1: 7c 28 b7  lcall _motorLock
  15f4: 3d 04 00  cmp   [X+004h],000h ; or possibly _ADCINC_iResult, ADCINC_iResult
  15f7: b0 1c     jnz   1614h
  15f9: 3d 05 00  cmp   [X+005h],000h
  15fc: a0 0b     jz    1608h
  15fe: 7c 25 8e  lcall _indicateLockoutOccurred
  1601: 62 d0 00  mov   reg[CUR_PP],000h
  1604: 39 00     cmp   A,000h
  1606: b0 0b     jnz   1612h
  1608: 7c 25 06  lcall _indicateSuccess
  160b: 62 d0 00  mov   reg[CUR_PP],000h
  160e: 39 00     cmp   A,000h
  1610: a0 03     jz    1614h
  1612: 8f 14     jmp   1527h
  1614: 62 d0 02  mov   reg[CUR_PP],002h
  1617: 3c 0c 00  cmp   [00ch],000h ; or possibly _fillerBuffer3
  161a: b0 11     jnz   162ch
  161c: 52 00     mov   A,[X+_globalSystemFlags] ; or possibly Port_1_Data_SHADE, NO_SHADOW, _NO_SHADOW, _Port_1_Data_SHADE, __data_start, _fillerBuffer1
  161e: 71 10     or    F,010h
  1620: 60 0c     mov   reg[PRT3DM0],A
  1622: 52 01     mov   A,[X+001h] ; or possibly Port_2_Data_SHADE, _Port_2_Data_SHADE
  1624: 60 0d     mov   reg[PRT3DM1],A
  1626: 52 02     mov   A,[X+002h] ; or possibly Port_3_Data_SHADE, _Port_3_Data_SHADE
  1628: 70 cf     and   F,0cfh
  162a: 60 0f     mov   reg[PRT3DM2],A
  162c: 62 d0 02  mov   reg[CUR_PP],002h
  162f: 3c 0c 00  cmp   [00ch],000h ; or possibly _fillerBuffer3
  1632: a0 07     jz    163ah
  1634: 62 d0 00  mov   reg[CUR_PP],000h
  1637: 55 da 05  mov   [0dah],005h
  163a: 62 d0 02  mov   reg[CUR_PP],002h
  163d: 51 0c     mov   A,[00ch] ; or possibly _fillerBuffer3
  163f: 62 d0 00  mov   reg[CUR_PP],000h
  1642: 38 fa     add   SP,0fah
  1644: 20        pop   X
  1645: 7f        ret

_setDeadboltPinModeHiZ:
  1646: 71 10     or    F,010h
  1648: 41 0c fb  and   reg[PRT3DM0],0fbh
  164b: 5d 0d     mov   A,reg[PRT3DM1]
  164d: 70 cf     and   F,0cfh
  164f: 62 d0 00  mov   reg[CUR_PP],000h
  1652: 53 ed     mov   [__r0],A
  1654: 26 ed fb  and   [__r0],0fbh
  1657: 2e ed 04  or    [__r0],004h
  165a: 51 ed     mov   A,[__r0]
  165c: 71 10     or    F,010h
  165e: 60 0d     mov   reg[PRT3DM1],A
  1660: 70 cf     and   F,0cfh
  1662: 5d 0f     mov   A,reg[PRT3DM2]
  1664: 53 ed     mov   [__r0],A
  1666: 26 ed fb  and   [__r0],0fbh
  1669: 2e ed 04  or    [__r0],004h
  166c: 51 ed     mov   A,[__r0]
  166e: 60 0f     mov   reg[PRT3DM2],A
  1670: 7f        ret

_setDeadboltPinModePullDown:
  1671: 71 10     or    F,010h
  1673: 41 0c fb  and   reg[PRT3DM0],0fbh
  1676: 41 0d fb  and   reg[PRT3DM1],0fbh
  1679: 70 cf     and   F,0cfh
  167b: 41 0f fb  and   reg[PRT3DM2],0fbh
  167e: 7f        ret

_getDeadboltStateEx:
  167f: 10        push  X
  1680: 4f        mov   X,SP
  1681: 38 03     add   SP,003h
  1683: 9f ec     call  1670h
  1685: 50 00     mov   A,000h
  1687: 08        push  A
  1688: 50 05     mov   A,005h
  168a: 08        push  A
  168b: 91 f3     call  187fh
  168d: 38 fe     add   SP,0feh
  168f: 62 d0 00  mov   reg[CUR_PP],000h
  1692: 5d 0c     mov   A,reg[PRT3DR]
  1694: 53 ed     mov   [__r0],A
  1696: 47 ed 04  tst   [__r0],004h
  1699: a0 09     jz    16a3h
  169b: 56 02 01  mov   [X+_Port_3_Data_SHADE],001h
  169e: 56 01 00  mov   [X+_Port_2_Data_SHADE],000h
  16a1: 80 07     jmp   16a9h
  16a3: 56 02 00  mov   [X+_Port_3_Data_SHADE],000h
  16a6: 56 01 00  mov   [X+_Port_2_Data_SHADE],000h
  16a9: 62 d0 00  mov   reg[CUR_PP],000h
  16ac: 52 02     mov   A,[X+_Port_3_Data_SHADE]
  16ae: 54 00     mov   [X+__data_start],A ; or possibly _fillerBuffer1, _globalSystemFlags
  16b0: 9f 94     call  1645h
  16b2: 52 00     mov   A,[X+__data_start] ; or possibly _fillerBuffer1, _globalSystemFlags
  16b4: 62 d0 00  mov   reg[CUR_PP],000h
  16b7: 38 fd     add   SP,0fdh
  16b9: 20        pop   X
  16ba: 7f        ret

_getDeadboltState:
  16bb: 62 d0 02  mov   reg[CUR_PP],002h
  16be: 3c 08 00  cmp   [008h],000h ; or possibly ADCINC_fStatus, _ADCINC_fStatus
  16c1: a0 08     jz    16cah
  16c3: 62 d0 00  mov   reg[CUR_PP],000h
  16c6: 50 00     mov   A,000h
  16c8: 80 06     jmp   16cfh
  16ca: 9f b3     call  167eh
  16cc: 62 d0 00  mov   reg[CUR_PP],000h
  16cf: 7f        ret

_pwmPinMode:
  16d0: 71 10     or    F,010h
  16d2: 41 14 ad  and   reg[PRT5DM0],0adh
  16d5: 41 15 ad  and   reg[PRT5DM1],0adh
  16d8: 70 cf     and   F,0cfh
  16da: 41 17 ad  and   reg[PRT5DM2],0adh
  16dd: 7f        ret

_readKeypad:
  16de: 10        push  X
  16df: 4f        mov   X,SP
  16e0: 38 03     add   SP,003h
  16e2: 62 10 e0  mov   reg[PRT4DR],0e0h
  16e5: 5d 10     mov   A,reg[PRT4DR]
  16e7: 54 02     mov   [X+_Port_3_Data_SHADE],A
  16e9: 62 10 0f  mov   reg[PRT4DR],00fh
  16ec: 5d 10     mov   A,reg[PRT4DR]
  16ee: 54 01     mov   [X+_Port_2_Data_SHADE],A
  16f0: 62 10 e0  mov   reg[PRT4DR],0e0h
  16f3: 52 01     mov   A,[X+_Port_2_Data_SHADE]
  16f5: 23 02     and   A,[X+002h] ; or possibly Port_3_Data_SHADE, _Port_3_Data_SHADE
  16f7: 54 00     mov   [X+__data_start],A ; or possibly _fillerBuffer1, _globalSystemFlags
  16f9: 3d 00 21  cmp   [X+000h],021h ; or possibly Port_1_Data_SHADE, NO_SHADOW, _NO_SHADOW, _Port_1_Data_SHADE, __data_start, _fillerBuffer1, _globalSystemFlags
  16fc: a0 06     jz    1703h
  16fe: 3d 00 81  cmp   [X+000h],081h ; or possibly Port_1_Data_SHADE, NO_SHADOW, _NO_SHADOW, _Port_1_Data_SHADE, __data_start, _fillerBuffer1, _globalSystemFlags
  1701: b0 04     jnz   1706h
  1703: 56 00 81  mov   [X+__data_start],081h ; or possibly _fillerBuffer1, _globalSystemFlags
  1706: 52 00     mov   A,[X+__data_start] ; or possibly _fillerBuffer1, _globalSystemFlags
  1708: 62 d0 00  mov   reg[CUR_PP],000h
  170b: 38 fd     add   SP,0fdh
  170d: 20        pop   X
  170e: 7f        ret

_waitKeypadIdle:
  170f: 10        push  X
  1710: 4f        mov   X,SP
  1711: 38 01     add   SP,001h
  1713: 56 00 00  mov   [X+__data_start],000h ; or possibly _fillerBuffer1, _globalSystemFlags
  1716: 80 0e     jmp   1725h
  1718: 9d e9     call  1502h
  171a: 62 d0 00  mov   reg[CUR_PP],000h
  171d: 53 ed     mov   [__r0],A
  171f: 52 00     mov   A,[X+__data_start] ; or possibly _fillerBuffer1, _globalSystemFlags
  1721: 2a ed     or    A,[__r0]
  1723: 54 00     mov   [X+__data_start],A ; or possibly _fillerBuffer1, _globalSystemFlags
  1725: 9f b7     call  16ddh
  1727: 62 d0 00  mov   reg[CUR_PP],000h
  172a: 39 00     cmp   A,000h
  172c: a0 06     jz    1733h
  172e: 3d 00 00  cmp   [X+000h],000h ; or possibly Port_1_Data_SHADE, NO_SHADOW, _NO_SHADOW, _Port_1_Data_SHADE, __data_start, _fillerBuffer1, _globalSystemFlags
  1731: af e6     jz    1718h
  1733: 52 00     mov   A,[X+__data_start] ; or possibly _fillerBuffer1, _globalSystemFlags
  1735: 62 d0 00  mov   reg[CUR_PP],000h
  1738: 38 ff     add   SP,0ffh
  173a: 20        pop   X
  173b: 7f        ret

_ISR_gpio:
  173c: 71 c0     or    F,0c0h
  173e: 08        push  A
  173f: 5d d0     mov   A,reg[CUR_PP]
  1741: 08        push  A
  1742: 62 d0 02  mov   reg[CUR_PP],002h
  1745: 55 00 01  mov   [_globalSystemFlags],001h ; or possibly Port_1_Data_SHADE, NO_SHADOW, _NO_SHADOW, _Port_1_Data_SHADE, __data_start, _fillerBuffer1
  1748: 62 d0 00  mov   reg[CUR_PP],000h
  174b: 55 d8 ff  mov   [0d8h],0ffh
  174e: 18        pop   A
  174f: 60 d0     mov   reg[CUR_PP],A
  1751: 18        pop   A
  1752: 7e        reti

_ISR_timer16:
  1753: 71 c0     or    F,0c0h
  1755: 08        push  A
  1756: 5d d0     mov   A,reg[CUR_PP]
  1758: 08        push  A
  1759: 62 d0 00  mov   reg[CUR_PP],000h
  175c: 51 ed     mov   A,[__r0]
  175e: 08        push  A
  175f: 51 ec     mov   A,[__r1]
  1761: 08        push  A
  1762: 62 d0 02  mov   reg[CUR_PP],002h
  1765: 51 14     mov   A,[014h]
  1767: 01 01     add   A,001h
  1769: 62 d0 00  mov   reg[CUR_PP],000h
  176c: 53 ec     mov   [__r1],A
  176e: 62 d0 02  mov   reg[CUR_PP],002h
  1771: 51 13     mov   A,[main.c:tick1ms]
  1773: 09 00     adc   A,000h
  1775: 62 d0 00  mov   reg[CUR_PP],000h
  1778: 53 ed     mov   [__r0],A
  177a: 51 ec     mov   A,[__r1]
  177c: 08        push  A
  177d: 51 ed     mov   A,[__r0]
  177f: 62 d0 02  mov   reg[CUR_PP],002h
  1782: 53 13     mov   [main.c:tick1ms],A
  1784: 18        pop   A
  1785: 53 14     mov   [014h],A
  1787: 62 d0 00  mov   reg[CUR_PP],000h
  178a: 3c ed 03  cmp   [__r0],003h
  178d: b0 14     jnz   17a2h
  178f: 3c ec e8  cmp   [__r1],0e8h
  1792: b0 0f     jnz   17a2h
  1794: 62 d0 02  mov   reg[CUR_PP],002h
  1797: 76 17     inc   [_secondsCounter]
  1799: 62 d0 02  mov   reg[CUR_PP],002h
  179c: 55 14 00  mov   [014h],000h
  179f: 55 13 00  mov   [main.c:tick1ms],000h
  17a2: 62 d0 02  mov   reg[CUR_PP],002h
  17a5: 76 16     inc   [016h]
  17a7: 0e 15 00  adc   [_timerInterruptCount],000h
  17aa: 62 d0 00  mov   reg[CUR_PP],000h
  17ad: 18        pop   A
  17ae: 53 ec     mov   [__r1],A
  17b0: 18        pop   A
  17b1: 53 ed     mov   [__r0],A
  17b3: 18        pop   A
  17b4: 60 d0     mov   reg[CUR_PP],A
  17b6: 18        pop   A
  17b7: 7e        reti

_ISR_sleepTimer:
  17b8: 71 c0     or    F,0c0h
  17ba: 08        push  A
  17bb: 5d d0     mov   A,reg[CUR_PP]
  17bd: 08        push  A
  17be: 5d d3     mov   A,reg[IDX_PP]
  17c0: 08        push  A
  17c1: 5d d4     mov   A,reg[MVR_PP]
  17c3: 08        push  A
  17c4: 5d d5     mov   A,reg[MVW_PP]
  17c6: 08        push  A
  17c7: 62 d0 00  mov   reg[CUR_PP],000h
  17ca: 51 ed     mov   A,[__r0]
  17cc: 08        push  A
  17cd: 51 ec     mov   A,[__r1]
  17cf: 08        push  A
  17d0: 51 eb     mov   A,[__r2]
  17d2: 08        push  A
  17d3: 51 ea     mov   A,[__r3]
  17d5: 08        push  A
  17d6: 51 e9     mov   A,[__r4]
  17d8: 08        push  A
  17d9: 51 e8     mov   A,[__r5]
  17db: 08        push  A
  17dc: 51 e7     mov   A,[__r6]
  17de: 08        push  A
  17df: 51 e6     mov   A,[__r7]
  17e1: 08        push  A
  17e2: 51 e5     mov   A,[__r8]
  17e4: 08        push  A
  17e5: 51 e4     mov   A,[__r9]
  17e7: 08        push  A
  17e8: 51 e3     mov   A,[__r10]
  17ea: 08        push  A
  17eb: 51 e2     mov   A,[__r11]
  17ed: 08        push  A
  17ee: 51 e1     mov   A,[__rX]
  17f0: 08        push  A
  17f1: 51 e0     mov   A,[__rY]
  17f3: 08        push  A
  17f4: 51 df     mov   A,[__rZ]
  17f6: 08        push  A
  17f7: 62 d0 02  mov   reg[CUR_PP],002h
  17fa: 3c 0a 00  cmp   [00ah],000h ; or possibly _ADCINC_fMode, ADCINC_fMode
  17fd: b0 3c     jnz   183ah
  17ff: 3c 06 00  cmp   [006h],000h
  1802: a0 1f     jz    1822h
  1804: 9e d8     call  16ddh
  1806: 39 00     cmp   A,000h
  1808: b0 14     jnz   181dh
  180a: 62 d0 02  mov   reg[CUR_PP],002h
  180d: 55 06 00  mov   [006h],000h
  1810: 62 d0 00  mov   reg[CUR_PP],000h
  1813: 55 da 05  mov   [0dah],005h
  1816: 10        push  X
  1817: 7c 08 32  lcall LED_Red_Off
  181a: 20        pop   X
  181b: 80 06     jmp   1822h
  181d: 10        push  X
  181e: 7c 08 4c  lcall LED_Red_Invert
  1821: 20        pop   X
  1822: 62 d0 00  mov   reg[CUR_PP],000h
  1825: 3c d7 00  cmp   [0d7h],000h
  1828: a0 11     jz    183ah
  182a: 51 d6     mov   A,[0d6h]
  182c: 01 01     add   A,001h
  182e: 53 d6     mov   [0d6h],A
  1830: 39 14     cmp   A,014h
  1832: b0 07     jnz   183ah
  1834: 55 d6 00  mov   [0d6h],000h
  1837: 55 d7 00  mov   [0d7h],000h
  183a: 62 d0 02  mov   reg[CUR_PP],002h
  183d: 76 12     inc   [012h]
  183f: 0e 11 00  adc   [_sleepInterruptCount],000h
  1842: 62 d0 00  mov   reg[CUR_PP],000h
  1845: 18        pop   A
  1846: 53 df     mov   [__rZ],A
  1848: 18        pop   A
  1849: 53 e0     mov   [__rY],A
  184b: 18        pop   A
  184c: 53 e1     mov   [__rX],A
  184e: 18        pop   A
  184f: 53 e2     mov   [__r11],A
  1851: 18        pop   A
  1852: 53 e3     mov   [__r10],A
  1854: 18        pop   A
  1855: 53 e4     mov   [__r9],A
  1857: 18        pop   A
  1858: 53 e5     mov   [__r8],A
  185a: 18        pop   A
  185b: 53 e6     mov   [__r7],A
  185d: 18        pop   A
  185e: 53 e7     mov   [__r6],A
  1860: 18        pop   A
  1861: 53 e8     mov   [__r5],A
  1863: 18        pop   A
  1864: 53 e9     mov   [__r4],A
  1866: 18        pop   A
  1867: 53 ea     mov   [__r3],A
  1869: 18        pop   A
  186a: 53 eb     mov   [__r2],A
  186c: 18        pop   A
  186d: 53 ec     mov   [__r1],A
  186f: 18        pop   A
  1870: 53 ed     mov   [__r0],A
  1872: 18        pop   A
  1873: 60 d5     mov   reg[MVW_PP],A
  1875: 18        pop   A
  1876: 60 d4     mov   reg[MVR_PP],A
  1878: 18        pop   A
  1879: 60 d3     mov   reg[IDX_PP],A
  187b: 18        pop   A
  187c: 60 d0     mov   reg[CUR_PP],A
  187e: 18        pop   A
  187f: 7e        reti

_delayInMsAwake:
  1880: 10        push  X
  1881: 4f        mov   X,SP
  1882: 38 02     add   SP,002h
  1884: 70 fe     and   F,0feh
  1886: 56 01 00  mov   [X+_Port_2_Data_SHADE],000h
  1889: 56 00 00  mov   [X+__data_start],000h ; or possibly _fillerBuffer1, _globalSystemFlags
  188c: 62 d0 02  mov   reg[CUR_PP],002h
  188f: 55 16 00  mov   [016h],000h
  1892: 55 15 00  mov   [_timerInterruptCount],000h
  1895: 80 10     jmp   18a6h
  1897: 70 fe     and   F,0feh
  1899: 62 d0 02  mov   reg[CUR_PP],002h
  189c: 51 16     mov   A,[016h]
  189e: 54 01     mov   [X+001h],A ; or possibly Port_2_Data_SHADE, _Port_2_Data_SHADE
  18a0: 51 15     mov   A,[_timerInterruptCount]
  18a2: 54 00     mov   [X+_globalSystemFlags],A ; or possibly Port_1_Data_SHADE, NO_SHADOW, _NO_SHADOW, _Port_1_Data_SHADE, __data_start, _fillerBuffer1
  18a4: 71 01     or    F,001h
  18a6: 52 fc     mov   A,[X+0fch] ; or possibly SROM_Clock
  18a8: 13 01     sub   A,[X+001h] ; or possibly Port_2_Data_SHADE, _Port_2_Data_SHADE
  18aa: 52 fb     mov   A,[X+0fbh] ; or possibly SROM_Pointer
  18ac: 1b 00     sbb   A,[X+000h] ; or possibly Port_1_Data_SHADE, NO_SHADOW, _NO_SHADOW, _Port_1_Data_SHADE, __data_start, _fillerBuffer1, _globalSystemFlags
  18ae: df e8     jnc   1897h
  18b0: 62 d0 00  mov   reg[CUR_PP],000h
  18b3: 50 00     mov   A,000h
  18b5: 38 fe     add   SP,0feh
  18b7: 20        pop   X
  18b8: 7f        ret

_delayInMs:
  18b9: 10        push  X
  18ba: 4f        mov   X,SP
  18bb: 38 09     add   SP,009h
  18bd: 56 06 00  mov   [X+006h],000h
  18c0: 56 03 00  mov   [X+Port_5_Data_SHADE],000h
  18c3: 56 02 00  mov   [X+_Port_3_Data_SHADE],000h
  18c6: 62 d0 00  mov   reg[CUR_PP],000h
  18c9: 51 db     mov   A,[0dbh]
  18cb: 08        push  A
  18cc: 51 dc     mov   A,[0dch]
  18ce: 08        push  A
  18cf: 51 dd     mov   A,[0ddh]
  18d1: 08        push  A
  18d2: 51 de     mov   A,[0deh]
  18d4: 08        push  A
  18d5: 50 00     mov   A,000h
  18d7: 08        push  A
  18d8: 08        push  A
  18d9: 08        push  A
  18da: 50 32     mov   A,032h
  18dc: 08        push  A
  18dd: 62 d0 00  mov   reg[CUR_PP],000h
  18e0: 7c 2c dd  lcall __mul_32X32_32
  18e3: 38 fc     add   SP,0fch
  18e5: 18        pop   A
  18e6: 53 ea     mov   [__r3],A
  18e8: 18        pop   A
  18e9: 53 eb     mov   [__r2],A
  18eb: 18        pop   A
  18ec: 53 ec     mov   [__r1],A
  18ee: 18        pop   A
  18ef: 53 ed     mov   [__r0],A
  18f1: 50 00     mov   A,000h
  18f3: 08        push  A
  18f4: 08        push  A
  18f5: 50 03     mov   A,003h
  18f7: 08        push  A
  18f8: 50 e8     mov   A,0e8h
  18fa: 08        push  A
  18fb: 51 ed     mov   A,[__r0]
  18fd: 08        push  A
  18fe: 51 ec     mov   A,[__r1]
  1900: 08        push  A
  1901: 51 eb     mov   A,[__r2]
  1903: 08        push  A
  1904: 51 ea     mov   A,[__r3]
  1906: 08        push  A
  1907: 7c 2c 10  lcall __divmodu_32X32_32
  190a: 18        pop   A
  190b: 53 ea     mov   [__r3],A
  190d: 18        pop   A
  190e: 53 eb     mov   [__r2],A
  1910: 18        pop   A
  1911: 18        pop   A
  1912: 38 fc     add   SP,0fch
  1914: 51 ea     mov   A,[__r3]
  1916: 53 ec     mov   [__r1],A
  1918: 51 eb     mov   A,[__r2]
  191a: 53 ed     mov   [__r0],A
  191c: 51 ec     mov   A,[__r1]
  191e: 54 08     mov   [X+_ADCINC_fStatus],A
  1920: 51 ed     mov   A,[__r0]
  1922: 54 07     mov   [X+007h],A
  1924: 41 11 f0  and   reg[PRT4IE],0f0h
  1927: 62 d0 02  mov   reg[CUR_PP],002h
  192a: 3c 08 00  cmp   [008h],000h ; or possibly ADCINC_fStatus, _ADCINC_fStatus
  192d: a0 0a     jz    1938h
  192f: 55 00 00  mov   [_globalSystemFlags],000h ; or possibly Port_1_Data_SHADE, NO_SHADOW, _NO_SHADOW, _Port_1_Data_SHADE, __data_start, _fillerBuffer1
  1932: 62 da df  mov   reg[INT_CLR0],0dfh
  1935: 43 e0 20  or    reg[INT_MSK0],020h
  1938: 71 10     or    F,010h
  193a: 41 e0 e7  and   reg[OSC_CR0],0e7h
  193d: 70 cf     and   F,0cfh
  193f: 43 e0 40  or    reg[INT_MSK0],040h
  1942: 62 d0 02  mov   reg[CUR_PP],002h
  1945: 55 0a 01  mov   [00ah],001h ; or possibly _ADCINC_fMode, ADCINC_fMode
  1948: 62 d0 00  mov   reg[CUR_PP],000h
  194b: 52 fc     mov   A,[X+SROM_Clock]
  194d: 53 ea     mov   [__r3],A
  194f: 52 fb     mov   A,[X+SROM_Pointer]
  1951: 53 eb     mov   [__r2],A
  1953: 62 d0 00  mov   reg[CUR_PP],000h
  1956: 51 db     mov   A,[0dbh]
  1958: 08        push  A
  1959: 51 dc     mov   A,[0dch]
  195b: 08        push  A
  195c: 51 dd     mov   A,[0ddh]
  195e: 08        push  A
  195f: 51 de     mov   A,[0deh]
  1961: 08        push  A
  1962: 62 d0 00  mov   reg[CUR_PP],000h
  1965: 50 00     mov   A,000h
  1967: 08        push  A
  1968: 08        push  A
  1969: 51 eb     mov   A,[__r2]
  196b: 08        push  A
  196c: 51 ea     mov   A,[__r3]
  196e: 08        push  A
  196f: 7c 2c dd  lcall __mul_32X32_32
  1972: 38 fc     add   SP,0fch
  1974: 18        pop   A
  1975: 53 ea     mov   [__r3],A
  1977: 18        pop   A
  1978: 53 eb     mov   [__r2],A
  197a: 18        pop   A
  197b: 53 ec     mov   [__r1],A
  197d: 18        pop   A
  197e: 53 ed     mov   [__r0],A
  1980: 50 00     mov   A,000h
  1982: 08        push  A
  1983: 08        push  A
  1984: 50 03     mov   A,003h
  1986: 08        push  A
  1987: 50 e8     mov   A,0e8h
  1989: 08        push  A
  198a: 51 ed     mov   A,[__r0]
  198c: 08        push  A
  198d: 51 ec     mov   A,[__r1]
  198f: 08        push  A
  1990: 51 eb     mov   A,[__r2]
  1992: 08        push  A
  1993: 51 ea     mov   A,[__r3]
  1995: 08        push  A
  1996: 7c 2c 10  lcall __divmodu_32X32_32
  1999: 18        pop   A
  199a: 53 ea     mov   [__r3],A
  199c: 18        pop   A
  199d: 53 eb     mov   [__r2],A
  199f: 18        pop   A
  19a0: 18        pop   A
  19a1: 38 fc     add   SP,0fch
  19a3: 51 ea     mov   A,[__r3]
  19a5: 53 ec     mov   [__r1],A
  19a7: 51 eb     mov   A,[__r2]
  19a9: 53 ed     mov   [__r0],A
  19ab: 51 ec     mov   A,[__r1]
  19ad: 54 05     mov   [X+005h],A
  19af: 51 ed     mov   A,[__r0]
  19b1: 54 04     mov   [X+ADCINC_iResult],A
  19b3: 56 01 00  mov   [X+_Port_2_Data_SHADE],000h
  19b6: 56 00 00  mov   [X+__data_start],000h ; or possibly _fillerBuffer1, _globalSystemFlags
  19b9: 80 84     jmp   1a3eh
  19bb: 62 d0 02  mov   reg[CUR_PP],002h
  19be: 3c 05 00  cmp   [005h],000h
  19c1: a0 61     jz    1a23h
  19c3: 62 d0 00  mov   reg[CUR_PP],000h
  19c6: 52 03     mov   A,[X+Port_5_Data_SHADE]
  19c8: 53 ec     mov   [__r1],A
  19ca: 52 02     mov   A,[X+_Port_3_Data_SHADE]
  19cc: 53 ed     mov   [__r0],A
  19ce: 51 ec     mov   A,[__r1]
  19d0: 01 01     add   A,001h
  19d2: 54 03     mov   [X+Port_5_Data_SHADE],A
  19d4: 51 ed     mov   A,[__r0]
  19d6: 09 00     adc   A,000h
  19d8: 54 02     mov   [X+_Port_3_Data_SHADE],A
  19da: 51 ec     mov   A,[__r1]
  19dc: 53 ea     mov   [__r3],A
  19de: 51 ed     mov   A,[__r0]
  19e0: 53 eb     mov   [__r2],A
  19e2: 50 00     mov   A,000h
  19e4: 62 d0 00  mov   reg[CUR_PP],000h
  19e7: 3a db b0  cmp   A,[0dbh]
  19ea: 23 3a     and   A,[X+03ah]
  19ec: dc b0     jnc   169dh
  19ee: 1f 62 d0  sbb   [X+062h],0d0h
  19f1: 00        ssc
  19f2: 51 eb     mov   A,[__r2]
  19f4: 62 d0 00  mov   reg[CUR_PP],000h
  19f7: 3a dd b0  cmp   A,[0ddh]
  19fa: 13 62     sub   A,[X+062h]
  19fc: d0 00     jnc   19fdh
  19fe: 51 ea     mov   A,[__r3]
  1a00: 62 d0 00  mov   reg[CUR_PP],000h
  1a03: 3a de b0  cmp   A,[0deh]
  1a06: 07 56 03  add   [X+056h],003h
  1a09: 00        ssc
  1a0a: 56 02 00  mov   [X+_Port_3_Data_SHADE],000h
  1a0d: 52 03     mov   A,[X+Port_5_Data_SHADE]
  1a0f: 13 08     sub   A,[X+008h] ; or possibly ADCINC_fStatus, _ADCINC_fStatus
  1a11: 52 02     mov   A,[X+_Port_3_Data_SHADE]
  1a13: 1b 07     sbb   A,[X+007h]
  1a15: d0 08     jnc   1a1eh
  1a17: 10        push  X
  1a18: 7c 08 6c  lcall LED_Green_On
  1a1b: 20        pop   X
  1a1c: 80 06     jmp   1a23h
  1a1e: 10        push  X
  1a1f: 7c 08 70  lcall LED_Green_Start
  1a22: 20        pop   X
  1a23: 62 d0 02  mov   reg[CUR_PP],002h
  1a26: 3c 08 00  cmp   [008h],000h ; or possibly ADCINC_fStatus, _ADCINC_fStatus
  1a29: a0 0b     jz    1a35h
  1a2b: 3c 00 00  cmp   [_globalSystemFlags],000h ; or possibly Port_1_Data_SHADE, NO_SHADOW, _NO_SHADOW, _Port_1_Data_SHADE, __data_start, _fillerBuffer1
  1a2e: a0 06     jz    1a35h
  1a30: 56 06 01  mov   [X+006h],001h
  1a33: 80 14     jmp   1a48h
  1a35: 43 ff 08  or    reg[CPU_SCR0],008h
  1a38: 40        nop
  1a39: 77 01     inc   [X+001h] ; or possibly Port_2_Data_SHADE, _Port_2_Data_SHADE
  1a3b: 0f 00 00  adc   [X+000h],000h ; or possibly Port_1_Data_SHADE, NO_SHADOW, _NO_SHADOW, _Port_1_Data_SHADE, __data_start, _fillerBuffer1, _globalSystemFlags
  1a3e: 52 01     mov   A,[X+001h] ; or possibly Port_2_Data_SHADE, _Port_2_Data_SHADE
  1a40: 13 05     sub   A,[X+005h]
  1a42: 52 00     mov   A,[X+_globalSystemFlags] ; or possibly Port_1_Data_SHADE, NO_SHADOW, _NO_SHADOW, _Port_1_Data_SHADE, __data_start, _fillerBuffer1
  1a44: 1b 04     sbb   A,[X+004h] ; or possibly _ADCINC_iResult, ADCINC_iResult
  1a46: cf 74     jc    19bbh
  1a48: 43 11 0f  or    reg[PRT4IE],00fh
  1a4b: 62 d0 02  mov   reg[CUR_PP],002h
  1a4e: 3c 08 00  cmp   [008h],000h ; or possibly ADCINC_fStatus, _ADCINC_fStatus
  1a51: a0 04     jz    1a56h
  1a53: 41 e0 df  and   reg[INT_MSK0],0dfh
  1a56: 62 d0 02  mov   reg[CUR_PP],002h
  1a59: 55 0a 00  mov   [00ah],000h ; or possibly _ADCINC_fMode, ADCINC_fMode
  1a5c: 41 e0 bf  and   reg[INT_MSK0],0bfh
  1a5f: 52 06     mov   A,[X+006h]
  1a61: 62 d0 00  mov   reg[CUR_PP],000h
  1a64: 38 f7     add   SP,0f7h
  1a66: 20        pop   X
  1a67: 7f        ret

_delayInMsSelect:
  1a68: 10        push  X
  1a69: 4f        mov   X,SP
  1a6a: 3d fc 00  cmp   [X+0fch],000h ; or possibly SROM_Clock
  1a6d: b0 10     jnz   1a7eh
  1a6f: 52 fa     mov   A,[X+SROM_BlockID]
  1a71: 08        push  A
  1a72: 52 fb     mov   A,[X+SROM_Pointer]
  1a74: 08        push  A
  1a75: 9e 42     call  18b8h
  1a77: 38 fe     add   SP,0feh
  1a79: 62 d0 00  mov   reg[CUR_PP],000h
  1a7c: 80 0e     jmp   1a8bh
  1a7e: 52 fa     mov   A,[X+SROM_BlockID]
  1a80: 08        push  A
  1a81: 52 fb     mov   A,[X+SROM_Pointer]
  1a83: 08        push  A
  1a84: 9d fa     call  187fh
  1a86: 38 fe     add   SP,0feh
  1a88: 62 d0 00  mov   reg[CUR_PP],000h
  1a8b: 20        pop   X
  1a8c: 7f        ret

_calibrateILO:
  1a8d: 10        push  X
  1a8e: 4f        mov   X,SP
  1a8f: 38 02     add   SP,002h
  1a91: 71 10     or    F,010h
  1a93: 62 e9 9b  mov   reg[ILO_TR],09bh
  1a96: 70 fe     and   F,0feh
  1a98: 70 cf     and   F,0cfh
  1a9a: 71 10     or    F,010h
  1a9c: 41 e0 e7  and   reg[OSC_CR0],0e7h
  1a9f: 70 cf     and   F,0cfh
  1aa1: 43 e0 40  or    reg[INT_MSK0],040h
  1aa4: 62 d0 02  mov   reg[CUR_PP],002h
  1aa7: 55 0a 00  mov   [00ah],000h ; or possibly _ADCINC_fMode, ADCINC_fMode
  1aaa: 62 d0 02  mov   reg[CUR_PP],002h
  1aad: 55 12 00  mov   [012h],000h
  1ab0: 55 11 00  mov   [_sleepInterruptCount],000h
  1ab3: 62 d0 02  mov   reg[CUR_PP],002h
  1ab6: 55 16 00  mov   [016h],000h
  1ab9: 55 15 00  mov   [_timerInterruptCount],000h
  1abc: 56 01 00  mov   [X+001h],000h ; or possibly Port_2_Data_SHADE, _Port_2_Data_SHADE
  1abf: 56 00 00  mov   [X+_globalSystemFlags],000h ; or possibly Port_1_Data_SHADE, NO_SHADOW, _NO_SHADOW, _Port_1_Data_SHADE, __data_start, _fillerBuffer1
  1ac2: 80 10     jmp   1ad3h
  1ac4: 70 fe     and   F,0feh
  1ac6: 62 d0 02  mov   reg[CUR_PP],002h
  1ac9: 51 16     mov   A,[016h]
  1acb: 54 01     mov   [X+001h],A ; or possibly Port_2_Data_SHADE, _Port_2_Data_SHADE
  1acd: 51 15     mov   A,[_timerInterruptCount]
  1acf: 54 00     mov   [X+_globalSystemFlags],A ; or possibly Port_1_Data_SHADE, NO_SHADOW, _NO_SHADOW, _Port_1_Data_SHADE, __data_start, _fillerBuffer1
  1ad1: 71 01     or    F,001h
  1ad3: 50 e8     mov   A,0e8h
  1ad5: 13 01     sub   A,[X+001h] ; or possibly Port_2_Data_SHADE, _Port_2_Data_SHADE
  1ad7: 50 03     mov   A,003h
  1ad9: 1b 00     sbb   A,[X+000h] ; or possibly Port_1_Data_SHADE, NO_SHADOW, _NO_SHADOW, _Port_1_Data_SHADE, __data_start, _fillerBuffer1, _globalSystemFlags
  1adb: df e8     jnc   1ac4h
  1add: 41 e0 bf  and   reg[INT_MSK0],0bfh
  1ae0: 62 d0 02  mov   reg[CUR_PP],002h
  1ae3: 51 12     mov   A,[012h]
  1ae5: 62 d0 00  mov   reg[CUR_PP],000h
  1ae8: 53 de     mov   [0deh],A
  1aea: 62 d0 02  mov   reg[CUR_PP],002h
  1aed: 51 11     mov   A,[_sleepInterruptCount]
  1aef: 62 d0 00  mov   reg[CUR_PP],000h
  1af2: 53 dd     mov   [0ddh],A
  1af4: 55 dc 00  mov   [0dch],000h
  1af7: 55 db 00  mov   [0dbh],000h
  1afa: 38 fe     add   SP,0feh
  1afc: 20        pop   X
  1afd: 7f        ret

_calibrateMaybeILO:
  1afe: 62 d0 00  mov   reg[CUR_PP],000h
  1b01: 51 d9     mov   A,[0d9h]
  1b03: 01 01     add   A,001h
  1b05: 53 d9     mov   [0d9h],A
  1b07: 62 d0 00  mov   reg[CUR_PP],000h
  1b0a: 39 14     cmp   A,014h
  1b0c: c0 09     jc    1b16h
  1b0e: 62 d0 00  mov   reg[CUR_PP],000h
  1b11: 55 d9 00  mov   [0d9h],000h
  1b14: 9f 77     call  1a8ch
  1b16: 7f        ret

_clearKeyBuffer:
  1b17: 62 d0 02  mov   reg[CUR_PP],002h
  1b1a: 55 17 00  mov   [_secondsCounter],000h
  1b1d: 62 d0 00  mov   reg[CUR_PP],000h
  1b20: 55 d4 00  mov   [0d4h],000h
  1b23: 50 00     mov   A,000h
  1b25: 08        push  A
  1b26: 50 08     mov   A,008h
  1b28: 08        push  A
  1b29: 50 00     mov   A,000h
  1b2b: 08        push  A
  1b2c: 08        push  A
  1b2d: 50 00     mov   A,000h
  1b2f: 08        push  A
  1b30: 50 cc     mov   A,0cch
  1b32: 08        push  A
  1b33: 7c 2d 91  lcall _memsetLMM
  1b36: 38 fa     add   SP,0fah
  1b38: 7f        ret

_getAnyKey:
  1b39: 10        push  X
  1b3a: 4f        mov   X,SP
  1b3b: 38 04     add   SP,004h
  1b3d: 56 00 00  mov   [X+__data_start],000h ; or possibly _fillerBuffer1, _globalSystemFlags
  1b40: 9b 9c     call  16ddh
  1b42: 62 d0 00  mov   reg[CUR_PP],000h
  1b45: 54 01     mov   [X+_Port_2_Data_SHADE],A
  1b47: 39 00     cmp   A,000h
  1b49: a1 0b     jz    1c55h
  1b4b: 50 00     mov   A,000h
  1b4d: 08        push  A
  1b4e: 50 3c     mov   A,03ch
  1b50: 08        push  A
  1b51: 9d 2d     call  187fh
  1b53: 38 fe     add   SP,0feh
  1b55: 62 d0 00  mov   reg[CUR_PP],000h
  1b58: 9b 84     call  16ddh
  1b5a: 62 d0 00  mov   reg[CUR_PP],000h
  1b5d: 3b 01     cmp   A,[X+001h] ; or possibly Port_2_Data_SHADE, _Port_2_Data_SHADE
  1b5f: b0 f5     jnz   1c55h
  1b61: 52 01     mov   A,[X+_Port_2_Data_SHADE]
  1b63: 08        push  A
  1b64: 98 36     call  139bh
  1b66: 38 ff     add   SP,0ffh
  1b68: 54 00     mov   [X+__data_start],A ; or possibly _fillerBuffer1, _globalSystemFlags
  1b6a: 39 00     cmp   A,000h
  1b6c: a0 7b     jz    1be8h
  1b6e: 62 d0 02  mov   reg[CUR_PP],002h
  1b71: 3c 09 00  cmp   [009h],000h ; or possibly ADCINC_bState, _ADCINC_bState
  1b74: b0 07     jnz   1b7ch
  1b76: 7c 24 e4  lcall _indicateKeypress
  1b79: 62 d0 00  mov   reg[CUR_PP],000h
  1b7c: 3d 00 23  cmp   [X+000h],023h ; or possibly Port_1_Data_SHADE, NO_SHADOW, _NO_SHADOW, _Port_1_Data_SHADE, __data_start, _fillerBuffer1, _globalSystemFlags
  1b7f: a0 6b     jz    1bebh
  1b81: 62 d0 00  mov   reg[CUR_PP],000h
  1b84: 3c d4 08  cmp   [0d4h],008h
  1b87: d0 2c     jnc   1bb4h
  1b89: 62 d0 00  mov   reg[CUR_PP],000h
  1b8c: 51 d4     mov   A,[0d4h]
  1b8e: 62 d0 00  mov   reg[CUR_PP],000h
  1b91: 53 ed     mov   [__r0],A
  1b93: 01 01     add   A,001h
  1b95: 62 d0 00  mov   reg[CUR_PP],000h
  1b98: 53 d4     mov   [0d4h],A
  1b9a: 62 d0 00  mov   reg[CUR_PP],000h
  1b9d: 51 ed     mov   A,[__r0]
  1b9f: 53 ec     mov   [__r1],A
  1ba1: 55 ed 00  mov   [__r0],000h
  1ba4: 06 ec cc  add   [__r1],0cch
  1ba7: 0e ed 00  adc   [__r0],000h
  1baa: 51 ed     mov   A,[__r0]
  1bac: 60 d5     mov   reg[MVW_PP],A
  1bae: 52 00     mov   A,[X+__data_start] ; or possibly _fillerBuffer1, _globalSystemFlags
  1bb0: 3f ec     mvi   [[__r1]++],A
  1bb2: 80 38     jmp   1bebh
  1bb4: 50 00     mov   A,000h
  1bb6: 08        push  A
  1bb7: 50 07     mov   A,007h
  1bb9: 08        push  A
  1bba: 50 00     mov   A,000h
  1bbc: 08        push  A
  1bbd: 50 cd     mov   A,0cdh
  1bbf: 08        push  A
  1bc0: 50 00     mov   A,000h
  1bc2: 08        push  A
  1bc3: 50 cc     mov   A,0cch
  1bc5: 08        push  A
  1bc6: 7c 2d 63  lcall _memcpyLMM
  1bc9: 38 fa     add   SP,0fah
  1bcb: 62 d0 00  mov   reg[CUR_PP],000h
  1bce: 51 d4     mov   A,[0d4h]
  1bd0: 62 d0 00  mov   reg[CUR_PP],000h
  1bd3: 53 ec     mov   [__r1],A
  1bd5: 55 ed 00  mov   [__r0],000h
  1bd8: 06 ec cc  add   [__r1],0cch
  1bdb: 0e ed 00  adc   [__r0],000h
  1bde: 51 ed     mov   A,[__r0]
  1be0: 60 d5     mov   reg[MVW_PP],A
  1be2: 52 00     mov   A,[X+__data_start] ; or possibly _fillerBuffer1, _globalSystemFlags
  1be4: 3f ec     mvi   [[__r1]++],A
  1be6: 80 04     jmp   1bebh
  1be8: 56 00 7f  mov   [X+__data_start],07fh ; or possibly _fillerBuffer1, _globalSystemFlags
  1beb: 3d 00 00  cmp   [X+000h],000h ; or possibly Port_1_Data_SHADE, NO_SHADOW, _NO_SHADOW, _Port_1_Data_SHADE, __data_start, _fillerBuffer1, _globalSystemFlags
  1bee: a0 53     jz    1c42h
  1bf0: 3d 00 23  cmp   [X+000h],023h ; or possibly Port_1_Data_SHADE, NO_SHADOW, _NO_SHADOW, _Port_1_Data_SHADE, __data_start, _fillerBuffer1, _globalSystemFlags
  1bf3: a0 4e     jz    1c42h
  1bf5: 56 03 00  mov   [X+Port_5_Data_SHADE],000h
  1bf8: 62 d0 02  mov   reg[CUR_PP],002h
  1bfb: 51 17     mov   A,[_secondsCounter]
  1bfd: 01 05     add   A,005h
  1bff: 54 02     mov   [X+002h],A ; or possibly Port_3_Data_SHADE, _Port_3_Data_SHADE
  1c01: 80 0e     jmp   1c10h
  1c03: 98 fe     call  1502h
  1c05: 62 d0 00  mov   reg[CUR_PP],000h
  1c08: 53 ed     mov   [__r0],A
  1c0a: 52 03     mov   A,[X+Port_5_Data_SHADE]
  1c0c: 2a ed     or    A,[__r0]
  1c0e: 54 03     mov   [X+Port_5_Data_SHADE],A
  1c10: 62 d0 02  mov   reg[CUR_PP],002h
  1c13: 51 17     mov   A,[_secondsCounter]
  1c15: 3b 02     cmp   A,[X+002h] ; or possibly Port_3_Data_SHADE, _Port_3_Data_SHADE
  1c17: a0 0a     jz    1c22h
  1c19: 9a c3     call  16ddh
  1c1b: 62 d0 00  mov   reg[CUR_PP],000h
  1c1e: 39 00     cmp   A,000h
  1c20: bf e2     jnz   1c03h
  1c22: 62 d0 02  mov   reg[CUR_PP],002h
  1c25: 51 17     mov   A,[_secondsCounter]
  1c27: 3b 02     cmp   A,[X+002h] ; or possibly Port_3_Data_SHADE, _Port_3_Data_SHADE
  1c29: b0 0c     jnz   1c36h
  1c2b: 62 d0 02  mov   reg[CUR_PP],002h
  1c2e: 55 06 01  mov   [006h],001h
  1c31: 56 00 00  mov   [X+_globalSystemFlags],000h ; or possibly Port_1_Data_SHADE, NO_SHADOW, _NO_SHADOW, _Port_1_Data_SHADE, __data_start, _fillerBuffer1
  1c34: 80 0d     jmp   1c42h
  1c36: 3d 03 00  cmp   [X+003h],000h ; or possibly _Port_5_Data_SHADE, Port_5_Data_SHADE
  1c39: a0 08     jz    1c42h
  1c3b: 62 d0 00  mov   reg[CUR_PP],000h
  1c3e: 50 21     mov   A,021h
  1c40: 80 19     jmp   1c5ah
  1c42: 3d 00 7f  cmp   [X+000h],07fh ; or possibly Port_1_Data_SHADE, NO_SHADOW, _NO_SHADOW, _Port_1_Data_SHADE, __data_start, _fillerBuffer1, _globalSystemFlags
  1c45: b0 04     jnz   1c4ah
  1c47: 56 00 00  mov   [X+__data_start],000h ; or possibly _fillerBuffer1, _globalSystemFlags
  1c4a: 3d 00 00  cmp   [X+000h],000h ; or possibly Port_1_Data_SHADE, NO_SHADOW, _NO_SHADOW, _Port_1_Data_SHADE, __data_start, _fillerBuffer1, _globalSystemFlags
  1c4d: a0 07     jz    1c55h
  1c4f: 62 d0 02  mov   reg[CUR_PP],002h
  1c52: 55 17 00  mov   [_secondsCounter],000h
  1c55: 52 00     mov   A,[X+_globalSystemFlags] ; or possibly Port_1_Data_SHADE, NO_SHADOW, _NO_SHADOW, _Port_1_Data_SHADE, __data_start, _fillerBuffer1
  1c57: 62 d0 00  mov   reg[CUR_PP],000h
  1c5a: 38 fc     add   SP,0fch
  1c5c: 20        pop   X
  1c5d: 7f        ret

_getNumberKey:
  1c5e: 10        push  X
  1c5f: 4f        mov   X,SP
  1c60: 38 01     add   SP,001h
  1c62: 9e d5     call  1b38h
  1c64: 62 d0 00  mov   reg[CUR_PP],000h
  1c67: 54 00     mov   [X+__data_start],A ; or possibly _fillerBuffer1, _globalSystemFlags
  1c69: 39 00     cmp   A,000h
  1c6b: a0 13     jz    1c7fh
  1c6d: 3d 00 30  cmp   [X+000h],030h ; or possibly Port_1_Data_SHADE, NO_SHADOW, _NO_SHADOW, _Port_1_Data_SHADE, __data_start, _fillerBuffer1, _globalSystemFlags
  1c70: c0 07     jc    1c78h
  1c72: 50 39     mov   A,039h
  1c74: 3b 00     cmp   A,[X+000h] ; or possibly Port_1_Data_SHADE, NO_SHADOW, _NO_SHADOW, _Port_1_Data_SHADE, __data_start, _fillerBuffer1, _globalSystemFlags
  1c76: d0 08     jnc   1c7fh
  1c78: 62 d0 00  mov   reg[CUR_PP],000h
  1c7b: 50 01     mov   A,001h
  1c7d: 80 06     jmp   1c84h
  1c7f: 62 d0 00  mov   reg[CUR_PP],000h
  1c82: 50 00     mov   A,000h
  1c84: 38 ff     add   SP,0ffh
  1c86: 20        pop   X
  1c87: 7f        ret

_getKeyString:
  1c88: 10        push  X
  1c89: 4f        mov   X,SP
  1c8a: 9e 8b     call  1b16h
  1c8c: 80 2c     jmp   1cb9h
  1c8e: 9f ce     call  1c5dh
  1c90: 62 d0 00  mov   reg[CUR_PP],000h
  1c93: 39 00     cmp   A,000h
  1c95: a0 05     jz    1c9bh
  1c97: 50 00     mov   A,000h
  1c99: 80 2c     jmp   1cc6h
  1c9b: 62 d0 00  mov   reg[CUR_PP],000h
  1c9e: 51 d4     mov   A,[0d4h]
  1ca0: 3b fc     cmp   A,[X+0fch] ; or possibly SROM_Clock
  1ca2: b0 16     jnz   1cb9h
  1ca4: 62 d0 02  mov   reg[CUR_PP],002h
  1ca7: 3c 09 00  cmp   [009h],000h ; or possibly ADCINC_bState, _ADCINC_bState
  1caa: b0 07     jnz   1cb2h
  1cac: 7c 24 f5  lcall _indicateKeyStringComplete
  1caf: 62 d0 00  mov   reg[CUR_PP],000h
  1cb2: 62 d0 00  mov   reg[CUR_PP],000h
  1cb5: 50 01     mov   A,001h
  1cb7: 80 0e     jmp   1cc6h
  1cb9: 62 d0 02  mov   reg[CUR_PP],002h
  1cbc: 3c 17 0a  cmp   [_secondsCounter],00ah
  1cbf: cf ce     jc    1c8eh
  1cc1: 62 d0 00  mov   reg[CUR_PP],000h
  1cc4: 50 00     mov   A,000h
  1cc6: 20        pop   X
  1cc7: 7f        ret

_getKeyStringEx:
  1cc8: 10        push  X
  1cc9: 4f        mov   X,SP
  1cca: 38 01     add   SP,001h
  1ccc: 9e 49     call  1b16h
  1cce: 80 15     jmp   1ce4h
  1cd0: 9e 67     call  1b38h
  1cd2: 62 d0 00  mov   reg[CUR_PP],000h
  1cd5: 54 00     mov   [X+__data_start],A ; or possibly _fillerBuffer1, _globalSystemFlags
  1cd7: 39 00     cmp   A,000h
  1cd9: a0 0a     jz    1ce4h
  1cdb: 3d 00 23  cmp   [X+000h],023h ; or possibly Port_1_Data_SHADE, NO_SHADOW, _NO_SHADOW, _Port_1_Data_SHADE, __data_start, _fillerBuffer1, _globalSystemFlags
  1cde: b0 05     jnz   1ce4h
  1ce0: 50 01     mov   A,001h
  1ce2: 80 0e     jmp   1cf1h
  1ce4: 62 d0 02  mov   reg[CUR_PP],002h
  1ce7: 3c 17 0a  cmp   [_secondsCounter],00ah
  1cea: cf e5     jc    1cd0h
  1cec: 62 d0 00  mov   reg[CUR_PP],000h
  1cef: 50 00     mov   A,000h
  1cf1: 38 ff     add   SP,0ffh
  1cf3: 20        pop   X
  1cf4: 7f        ret

_mfgTestKeypad:
  1cf5: 10        push  X
  1cf6: 4f        mov   X,SP
  1cf7: 38 01     add   SP,001h
  1cf9: 56 00 00  mov   [X+__data_start],000h ; or possibly _fillerBuffer1, _globalSystemFlags
  1cfc: 80 4a     jmp   1d47h
  1cfe: 50 01     mov   A,001h
  1d00: 08        push  A
  1d01: 9f 85     call  1c87h
  1d03: 38 ff     add   SP,0ffh
  1d05: 62 d0 00  mov   reg[CUR_PP],000h
  1d08: 39 00     cmp   A,000h
  1d0a: a0 23     jz    1d2eh
  1d0c: 52 00     mov   A,[X+__data_start] ; or possibly _fillerBuffer1, _globalSystemFlags
  1d0e: 53 ec     mov   [__r1],A
  1d10: 55 ed 00  mov   [__r0],000h
  1d13: 06 ec 3b  add   [__r1],03bh
  1d16: 0e ed 02  adc   [__r0],002h
  1d19: 51 ed     mov   A,[__r0]
  1d1b: 10        push  X
  1d1c: 58 ec     mov   X,[__r1]
  1d1e: 28        romx
  1d1f: 20        pop   X
  1d20: 53 ed     mov   [__r0],A
  1d22: 62 d0 00  mov   reg[CUR_PP],000h
  1d25: 51 cc     mov   A,[_globalSystemVars]
  1d27: 62 d0 00  mov   reg[CUR_PP],000h
  1d2a: 3a ed a0  cmp   A,[__r0]
  1d2d: 08        push  A
  1d2e: 62 d0 00  mov   reg[CUR_PP],000h
  1d31: 50 00     mov   A,000h
  1d33: 80 2f     jmp   1d63h
  1d35: 50 03     mov   A,003h
  1d37: 08        push  A
  1d38: 50 02     mov   A,002h
  1d3a: 08        push  A
  1d3b: 50 32     mov   A,032h
  1d3d: 08        push  A
  1d3e: 95 bd     call  22fch
  1d40: 38 fd     add   SP,0fdh
  1d42: 62 d0 00  mov   reg[CUR_PP],000h
  1d45: 77 00     inc   [X+__data_start] ; or possibly _fillerBuffer1, _globalSystemFlags
  1d47: 3d 00 0a  cmp   [X+000h],00ah ; or possibly Port_1_Data_SHADE, NO_SHADOW, _NO_SHADOW, _Port_1_Data_SHADE, __data_start, _fillerBuffer1, _globalSystemFlags
  1d4a: cf b3     jc    1cfeh
  1d4c: 50 01     mov   A,001h
  1d4e: 08        push  A
  1d4f: 9f 37     call  1c87h
  1d51: 38 ff     add   SP,0ffh
  1d53: 62 d0 00  mov   reg[CUR_PP],000h
  1d56: 39 00     cmp   A,000h
  1d58: b0 05     jnz   1d5eh
  1d5a: 50 00     mov   A,000h
  1d5c: 80 06     jmp   1d63h
  1d5e: 62 d0 00  mov   reg[CUR_PP],000h
  1d61: 50 01     mov   A,001h
  1d63: 38 ff     add   SP,0ffh
  1d65: 20        pop   X
  1d66: 7f        ret

_mfgTestLEDs:
  1d67: 10        push  X
  1d68: 4f        mov   X,SP
  1d69: 38 01     add   SP,001h
  1d6b: 56 00 00  mov   [X+__data_start],000h ; or possibly _fillerBuffer1, _globalSystemFlags
  1d6e: 80 35     jmp   1da4h
  1d70: 50 01     mov   A,001h
  1d72: 08        push  A
  1d73: 9f 13     call  1c87h
  1d75: 38 ff     add   SP,0ffh
  1d77: 62 d0 00  mov   reg[CUR_PP],000h
  1d7a: 39 00     cmp   A,000h
  1d7c: b0 05     jnz   1d82h
  1d7e: 50 00     mov   A,000h
  1d80: 80 3f     jmp   1dc0h
  1d82: 50 01     mov   A,001h
  1d84: 08        push  A
  1d85: 62 d0 00  mov   reg[CUR_PP],000h
  1d88: 52 00     mov   A,[X+__data_start] ; or possibly _fillerBuffer1, _globalSystemFlags
  1d8a: 53 ec     mov   [__r1],A
  1d8c: 55 ed 00  mov   [__r0],000h
  1d8f: 06 ec 45  add   [__r1],045h
  1d92: 0e ed 02  adc   [__r0],002h
  1d95: 51 ed     mov   A,[__r0]
  1d97: 08        push  A
  1d98: 51 ec     mov   A,[__r1]
  1d9a: 08        push  A
  1d9b: 95 60     call  22fch
  1d9d: 38 fd     add   SP,0fdh
  1d9f: 62 d0 00  mov   reg[CUR_PP],000h
  1da2: 77 00     inc   [X+__data_start] ; or possibly _fillerBuffer1, _globalSystemFlags
  1da4: 3d 00 12  cmp   [X+000h],012h ; or possibly Port_1_Data_SHADE, NO_SHADOW, _NO_SHADOW, _Port_1_Data_SHADE, __data_start, _fillerBuffer1, _globalSystemFlags
  1da7: cf c8     jc    1d70h
  1da9: 50 01     mov   A,001h
  1dab: 08        push  A
  1dac: 9e da     call  1c87h
  1dae: 38 ff     add   SP,0ffh
  1db0: 62 d0 00  mov   reg[CUR_PP],000h
  1db3: 39 00     cmp   A,000h
  1db5: b0 05     jnz   1dbbh
  1db7: 50 00     mov   A,000h
  1db9: 80 06     jmp   1dc0h
  1dbb: 62 d0 00  mov   reg[CUR_PP],000h
  1dbe: 50 01     mov   A,001h
  1dc0: 38 ff     add   SP,0ffh
  1dc2: 20        pop   X
  1dc3: 7f        ret

_mfgTestMotor:
  1dc4: 50 01     mov   A,001h
  1dc6: 08        push  A
  1dc7: 9e bf     call  1c87h
  1dc9: 38 ff     add   SP,0ffh
  1dcb: 62 d0 00  mov   reg[CUR_PP],000h
  1dce: 39 00     cmp   A,000h
  1dd0: b0 05     jnz   1dd6h
  1dd2: 50 00     mov   A,000h
  1dd4: 80 30     jmp   1e05h
  1dd6: 7c 28 af  lcall _motorUnlock
  1dd9: 50 01     mov   A,001h
  1ddb: 08        push  A
  1ddc: 9e aa     call  1c87h
  1dde: 38 ff     add   SP,0ffh
  1de0: 62 d0 00  mov   reg[CUR_PP],000h
  1de3: 39 00     cmp   A,000h
  1de5: b0 05     jnz   1debh
  1de7: 50 00     mov   A,000h
  1de9: 80 1b     jmp   1e05h
  1deb: 7c 28 b7  lcall _motorLock
  1dee: 50 01     mov   A,001h
  1df0: 08        push  A
  1df1: 9e 95     call  1c87h
  1df3: 38 ff     add   SP,0ffh
  1df5: 62 d0 00  mov   reg[CUR_PP],000h
  1df8: 39 00     cmp   A,000h
  1dfa: b0 05     jnz   1e00h
  1dfc: 50 00     mov   A,000h
  1dfe: 80 06     jmp   1e05h
  1e00: 62 d0 00  mov   reg[CUR_PP],000h
  1e03: 50 01     mov   A,001h
  1e05: 7f        ret

_mfgTestSwitches:
  1e06: 50 01     mov   A,001h
  1e08: 08        push  A
  1e09: 9e 7d     call  1c87h
  1e0b: 38 ff     add   SP,0ffh
  1e0d: 62 d0 00  mov   reg[CUR_PP],000h
  1e10: 39 00     cmp   A,000h
  1e12: b0 05     jnz   1e18h
  1e14: 50 00     mov   A,000h
  1e16: 80 e1     jmp   1ef8h
  1e18: 98 65     call  167eh
  1e1a: 62 d0 00  mov   reg[CUR_PP],000h
  1e1d: 39 00     cmp   A,000h
  1e1f: a0 15     jz    1e35h
  1e21: 50 03     mov   A,003h
  1e23: 08        push  A
  1e24: 50 02     mov   A,002h
  1e26: 08        push  A
  1e27: 50 32     mov   A,032h
  1e29: 08        push  A
  1e2a: 94 d1     call  22fch
  1e2c: 38 fd     add   SP,0fdh
  1e2e: 62 d0 00  mov   reg[CUR_PP],000h
  1e31: 53 ed     mov   [__r0],A
  1e33: 80 11     jmp   1e45h
  1e35: 50 03     mov   A,003h
  1e37: 08        push  A
  1e38: 50 02     mov   A,002h
  1e3a: 08        push  A
  1e3b: 50 35     mov   A,035h
  1e3d: 08        push  A
  1e3e: 94 bd     call  22fch
  1e40: 38 fd     add   SP,0fdh
  1e42: 62 d0 00  mov   reg[CUR_PP],000h
  1e45: 50 01     mov   A,001h
  1e47: 08        push  A
  1e48: 9e 3e     call  1c87h
  1e4a: 38 ff     add   SP,0ffh
  1e4c: 62 d0 00  mov   reg[CUR_PP],000h
  1e4f: 39 00     cmp   A,000h
  1e51: b0 05     jnz   1e57h
  1e53: 50 00     mov   A,000h
  1e55: 80 a2     jmp   1ef8h
  1e57: 7c 14 dc  lcall _thumbTurnTestMode
  1e5a: 5d 0c     mov   A,reg[PRT3DR]
  1e5c: 62 d0 00  mov   reg[CUR_PP],000h
  1e5f: 53 ed     mov   [__r0],A
  1e61: 47 ed 01  tst   [__r0],001h
  1e64: a0 1e     jz    1e83h
  1e66: 5d 0c     mov   A,reg[PRT3DR]
  1e68: 53 ed     mov   [__r0],A
  1e6a: 47 ed 02  tst   [__r0],002h
  1e6d: b0 15     jnz   1e83h
  1e6f: 50 03     mov   A,003h
  1e71: 08        push  A
  1e72: 50 02     mov   A,002h
  1e74: 08        push  A
  1e75: 50 32     mov   A,032h
  1e77: 08        push  A
  1e78: 94 83     call  22fch
  1e7a: 38 fd     add   SP,0fdh
  1e7c: 62 d0 00  mov   reg[CUR_PP],000h
  1e7f: 53 ed     mov   [__r0],A
  1e81: 80 11     jmp   1e93h
  1e83: 50 03     mov   A,003h
  1e85: 08        push  A
  1e86: 50 02     mov   A,002h
  1e88: 08        push  A
  1e89: 50 35     mov   A,035h
  1e8b: 08        push  A
  1e8c: 94 6f     call  22fch
  1e8e: 38 fd     add   SP,0fdh
  1e90: 62 d0 00  mov   reg[CUR_PP],000h
  1e93: 50 01     mov   A,001h
  1e95: 08        push  A
  1e96: 9d f0     call  1c87h
  1e98: 38 ff     add   SP,0ffh
  1e9a: 62 d0 00  mov   reg[CUR_PP],000h
  1e9d: 39 00     cmp   A,000h
  1e9f: b0 05     jnz   1ea5h
  1ea1: 50 00     mov   A,000h
  1ea3: 80 54     jmp   1ef8h
  1ea5: 5d 0c     mov   A,reg[PRT3DR]
  1ea7: 62 d0 00  mov   reg[CUR_PP],000h
  1eaa: 53 ed     mov   [__r0],A
  1eac: 47 ed 01  tst   [__r0],001h
  1eaf: b0 1e     jnz   1eceh
  1eb1: 5d 0c     mov   A,reg[PRT3DR]
  1eb3: 53 ed     mov   [__r0],A
  1eb5: 47 ed 02  tst   [__r0],002h
  1eb8: a0 15     jz    1eceh
  1eba: 50 03     mov   A,003h
  1ebc: 08        push  A
  1ebd: 50 02     mov   A,002h
  1ebf: 08        push  A
  1ec0: 50 32     mov   A,032h
  1ec2: 08        push  A
  1ec3: 94 38     call  22fch
  1ec5: 38 fd     add   SP,0fdh
  1ec7: 62 d0 00  mov   reg[CUR_PP],000h
  1eca: 53 ed     mov   [__r0],A
  1ecc: 80 11     jmp   1edeh
  1ece: 50 03     mov   A,003h
  1ed0: 08        push  A
  1ed1: 50 02     mov   A,002h
  1ed3: 08        push  A
  1ed4: 50 35     mov   A,035h
  1ed6: 08        push  A
  1ed7: 94 24     call  22fch
  1ed9: 38 fd     add   SP,0fdh
  1edb: 62 d0 00  mov   reg[CUR_PP],000h
  1ede: 50 01     mov   A,001h
  1ee0: 08        push  A
  1ee1: 9d a5     call  1c87h
  1ee3: 38 ff     add   SP,0ffh
  1ee5: 62 d0 00  mov   reg[CUR_PP],000h
  1ee8: 39 00     cmp   A,000h
  1eea: b0 05     jnz   1ef0h
  1eec: 50 00     mov   A,000h
  1eee: 80 09     jmp   1ef8h
  1ef0: 7c 14 ea  lcall _initializeSwitches
  1ef3: 62 d0 00  mov   reg[CUR_PP],000h
  1ef6: 50 01     mov   A,001h
  1ef8: 7f        ret

_mfgTestVoltages:
  1ef9: 10        push  X
  1efa: 4f        mov   X,SP
  1efb: 38 01     add   SP,001h
  1efd: 56 00 00  mov   [X+__data_start],000h ; or possibly _fillerBuffer1, _globalSystemFlags
  1f00: 80 5f     jmp   1f60h
  1f02: 50 01     mov   A,001h
  1f04: 08        push  A
  1f05: 9d 81     call  1c87h
  1f07: 38 ff     add   SP,0ffh
  1f09: 62 d0 00  mov   reg[CUR_PP],000h
  1f0c: 39 00     cmp   A,000h
  1f0e: b0 05     jnz   1f14h
  1f10: 50 00     mov   A,000h
  1f12: 80 69     jmp   1f7ch
  1f14: 96 c5     call  25dah
  1f16: 62 d0 02  mov   reg[CUR_PP],002h
  1f19: 3c 02 00  cmp   [002h],000h ; or possibly Port_3_Data_SHADE, _Port_3_Data_SHADE
  1f1c: a0 15     jz    1f32h
  1f1e: 50 03     mov   A,003h
  1f20: 08        push  A
  1f21: 50 02     mov   A,002h
  1f23: 08        push  A
  1f24: 50 38     mov   A,038h
  1f26: 08        push  A
  1f27: 93 d4     call  22fch
  1f29: 38 fd     add   SP,0fdh
  1f2b: 62 d0 00  mov   reg[CUR_PP],000h
  1f2e: 53 ed     mov   [__r0],A
  1f30: 80 2d     jmp   1f5eh
  1f32: 62 d0 02  mov   reg[CUR_PP],002h
  1f35: 3c 03 00  cmp   [003h],000h ; or possibly _Port_5_Data_SHADE, Port_5_Data_SHADE
  1f38: a0 15     jz    1f4eh
  1f3a: 50 03     mov   A,003h
  1f3c: 08        push  A
  1f3d: 50 02     mov   A,002h
  1f3f: 08        push  A
  1f40: 50 35     mov   A,035h
  1f42: 08        push  A
  1f43: 93 b8     call  22fch
  1f45: 38 fd     add   SP,0fdh
  1f47: 62 d0 00  mov   reg[CUR_PP],000h
  1f4a: 53 ed     mov   [__r0],A
  1f4c: 80 11     jmp   1f5eh
  1f4e: 50 03     mov   A,003h
  1f50: 08        push  A
  1f51: 50 02     mov   A,002h
  1f53: 08        push  A
  1f54: 50 32     mov   A,032h
  1f56: 08        push  A
  1f57: 93 a4     call  22fch
  1f59: 38 fd     add   SP,0fdh
  1f5b: 62 d0 00  mov   reg[CUR_PP],000h
  1f5e: 77 00     inc   [X+__data_start] ; or possibly _fillerBuffer1, _globalSystemFlags
  1f60: 3d 00 03  cmp   [X+000h],003h ; or possibly Port_1_Data_SHADE, NO_SHADOW, _NO_SHADOW, _Port_1_Data_SHADE, __data_start, _fillerBuffer1, _globalSystemFlags
  1f63: cf 9e     jc    1f02h
  1f65: 50 01     mov   A,001h
  1f67: 08        push  A
  1f68: 9d 1e     call  1c87h
  1f6a: 38 ff     add   SP,0ffh
  1f6c: 62 d0 00  mov   reg[CUR_PP],000h
  1f6f: 39 00     cmp   A,000h
  1f71: b0 05     jnz   1f77h
  1f73: 50 00     mov   A,000h
  1f75: 80 06     jmp   1f7ch
  1f77: 62 d0 00  mov   reg[CUR_PP],000h
  1f7a: 50 01     mov   A,001h
  1f7c: 38 ff     add   SP,0ffh
  1f7e: 20        pop   X
  1f7f: 7f        ret

_mfgTestDelay:
  1f80: 50 01     mov   A,001h
  1f82: 08        push  A
  1f83: 9d 03     call  1c87h
  1f85: 38 ff     add   SP,0ffh
  1f87: 62 d0 00  mov   reg[CUR_PP],000h
  1f8a: 39 00     cmp   A,000h
  1f8c: b0 05     jnz   1f92h
  1f8e: 50 00     mov   A,000h
  1f90: 80 2f     jmp   1fc0h
  1f92: 10        push  X
  1f93: 7c 08 6c  lcall LED_Green_On
  1f96: 20        pop   X
  1f97: 50 07     mov   A,007h
  1f99: 08        push  A
  1f9a: 50 d0     mov   A,0d0h
  1f9c: 08        push  A
  1f9d: 99 1a     call  18b8h
  1f9f: 38 fe     add   SP,0feh
  1fa1: 62 d0 00  mov   reg[CUR_PP],000h
  1fa4: 10        push  X
  1fa5: 7c 08 70  lcall LED_Green_Start
  1fa8: 20        pop   X
  1fa9: 50 01     mov   A,001h
  1fab: 08        push  A
  1fac: 9c da     call  1c87h
  1fae: 38 ff     add   SP,0ffh
  1fb0: 62 d0 00  mov   reg[CUR_PP],000h
  1fb3: 39 00     cmp   A,000h
  1fb5: b0 05     jnz   1fbbh
  1fb7: 50 00     mov   A,000h
  1fb9: 80 06     jmp   1fc0h
  1fbb: 62 d0 00  mov   reg[CUR_PP],000h
  1fbe: 50 01     mov   A,001h
  1fc0: 7f        ret

_programmingModeEnter:
  1fc1: 62 d0 02  mov   reg[CUR_PP],002h
  1fc4: 55 01 01  mov   [001h],001h ; or possibly Port_2_Data_SHADE, _Port_2_Data_SHADE
  1fc7: 95 e2     call  25aah
  1fc9: 10        push  X
  1fca: 7c 07 f0  lcall _LED_Yellow_On
  1fcd: 20        pop   X
  1fce: 7f        ret

_programmingModeExit:
  1fcf: 95 f2     call  25c2h
  1fd1: 10        push  X
  1fd2: 7c 07 f4  lcall LED_Yellow_Start
  1fd5: 20        pop   X
  1fd6: 62 d0 02  mov   reg[CUR_PP],002h
  1fd9: 55 01 00  mov   [001h],000h ; or possibly Port_2_Data_SHADE, _Port_2_Data_SHADE
  1fdc: 7f        ret

_programEmtekEx:
  1fdd: 10        push  X
  1fde: 4f        mov   X,SP
  1fdf: 38 0b     add   SP,00bh
  1fe1: 50 00     mov   A,000h
  1fe3: 08        push  A
  1fe4: 50 cc     mov   A,0cch
  1fe6: 08        push  A
  1fe7: 7c 12 46  lcall _validateMasterCode
  1fea: 38 fe     add   SP,0feh
  1fec: 62 d0 00  mov   reg[CUR_PP],000h
  1fef: 39 00     cmp   A,000h
  1ff1: a2 d8     jz    22cah
  1ff3: 9c d3     call  1cc7h
  1ff5: 39 00     cmp   A,000h
  1ff7: a2 d2     jz    22cah
  1ff9: 62 d0 00  mov   reg[CUR_PP],000h
  1ffc: 3c d4 01  cmp   [0d4h],001h
  1fff: b2 ca     jnz   22cah
  2001: 51 cc     mov   A,[_globalSystemVars]
  2003: 54 01     mov   [X+_Port_2_Data_SHADE],A
  2005: 56 00 00  mov   [X+__data_start],000h ; or possibly _fillerBuffer1, _globalSystemFlags
  2008: 3d 00 00  cmp   [X+000h],000h ; or possibly Port_1_Data_SHADE, NO_SHADOW, _NO_SHADOW, _Port_1_Data_SHADE, __data_start, _fillerBuffer1, _globalSystemFlags
  200b: b0 06     jnz   2012h
  200d: 3d 01 30  cmp   [X+001h],030h ; or possibly Port_2_Data_SHADE, _Port_2_Data_SHADE
  2010: a2 4d     jz    225eh
  2012: 3d 00 00  cmp   [X+000h],000h ; or possibly Port_1_Data_SHADE, NO_SHADOW, _NO_SHADOW, _Port_1_Data_SHADE, __data_start, _fillerBuffer1, _globalSystemFlags
  2015: b0 06     jnz   201ch
  2017: 3d 01 31  cmp   [X+001h],031h ; or possibly Port_2_Data_SHADE, _Port_2_Data_SHADE
  201a: a0 35     jz    2050h
  201c: 3d 00 00  cmp   [X+000h],000h ; or possibly Port_1_Data_SHADE, NO_SHADOW, _NO_SHADOW, _Port_1_Data_SHADE, __data_start, _fillerBuffer1, _globalSystemFlags
  201f: b0 06     jnz   2026h
  2021: 3d 01 32  cmp   [X+001h],032h ; or possibly Port_2_Data_SHADE, _Port_2_Data_SHADE
  2024: a0 9c     jz    20c1h
  2026: 3d 00 00  cmp   [X+000h],000h ; or possibly Port_1_Data_SHADE, NO_SHADOW, _NO_SHADOW, _Port_1_Data_SHADE, __data_start, _fillerBuffer1, _globalSystemFlags
  2029: b0 06     jnz   2030h
  202b: 3d 01 33  cmp   [X+001h],033h ; or possibly Port_2_Data_SHADE, _Port_2_Data_SHADE
  202e: a1 22     jz    2151h
  2030: 3d 00 00  cmp   [X+000h],000h ; or possibly Port_1_Data_SHADE, NO_SHADOW, _NO_SHADOW, _Port_1_Data_SHADE, __data_start, _fillerBuffer1, _globalSystemFlags
  2033: b0 06     jnz   203ah
  2035: 3d 01 34  cmp   [X+001h],034h ; or possibly Port_2_Data_SHADE, _Port_2_Data_SHADE
  2038: a1 b2     jz    21ebh
  203a: 3d 00 00  cmp   [X+000h],000h ; or possibly Port_1_Data_SHADE, NO_SHADOW, _NO_SHADOW, _Port_1_Data_SHADE, __data_start, _fillerBuffer1, _globalSystemFlags
  203d: b0 06     jnz   2044h
  203f: 3d 01 35  cmp   [X+001h],035h ; or possibly Port_2_Data_SHADE, _Port_2_Data_SHADE
  2042: a1 cf     jz    2212h
  2044: 3d 00 00  cmp   [X+000h],000h ; or possibly Port_1_Data_SHADE, NO_SHADOW, _NO_SHADOW, _Port_1_Data_SHADE, __data_start, _fillerBuffer1, _globalSystemFlags
  2047: b0 06     jnz   204eh
  2049: 3d 01 36  cmp   [X+001h],036h ; or possibly Port_2_Data_SHADE, _Port_2_Data_SHADE
  204c: a1 ea     jz    2237h
  204e: 82 7b     jmp   22cah
  2050: 9c 76     call  1cc7h
  2052: 62 d0 00  mov   reg[CUR_PP],000h
  2055: 39 00     cmp   A,000h
  2057: a2 72     jz    22cah
  2059: 50 00     mov   A,000h
  205b: 08        push  A
  205c: 50 08     mov   A,008h
  205e: 08        push  A
  205f: 50 00     mov   A,000h
  2061: 08        push  A
  2062: 50 cc     mov   A,0cch
  2064: 08        push  A
  2065: 5a ec     mov   [__r1],X
  2067: 06 ec 02  add   [__r1],002h
  206a: 50 03     mov   A,003h
  206c: 08        push  A
  206d: 51 ec     mov   A,[__r1]
  206f: 08        push  A
  2070: 7c 2d 63  lcall _memcpyLMM
  2073: 38 fa     add   SP,0fah
  2075: 9c 51     call  1cc7h
  2077: 62 d0 00  mov   reg[CUR_PP],000h
  207a: 39 00     cmp   A,000h
  207c: a2 4d     jz    22cah
  207e: 50 00     mov   A,000h
  2080: 08        push  A
  2081: 50 08     mov   A,008h
  2083: 08        push  A
  2084: 50 00     mov   A,000h
  2086: 08        push  A
  2087: 50 cc     mov   A,0cch
  2089: 08        push  A
  208a: 5a ec     mov   [__r1],X
  208c: 06 ec 02  add   [__r1],002h
  208f: 50 03     mov   A,003h
  2091: 08        push  A
  2092: 51 ec     mov   A,[__r1]
  2094: 08        push  A
  2095: 7c 2d bf  lcall _memcmp
  2098: 38 fa     add   SP,0fah
  209a: 62 d0 00  mov   reg[CUR_PP],000h
  209d: 3c ed 00  cmp   [__r0],000h
  20a0: b2 29     jnz   22cah
  20a2: 3c ec 00  cmp   [__r1],000h
  20a5: b2 24     jnz   22cah
  20a7: 62 d0 00  mov   reg[CUR_PP],000h
  20aa: 5a ec     mov   [__r1],X
  20ac: 06 ec 02  add   [__r1],002h
  20af: 50 03     mov   A,003h
  20b1: 08        push  A
  20b2: 51 ec     mov   A,[__r1]
  20b4: 08        push  A
  20b5: 7c 12 a0  lcall _updateMasterCode
  20b8: 38 fe     add   SP,0feh
  20ba: 62 d0 00  mov   reg[CUR_PP],000h
  20bd: 50 01     mov   A,001h
  20bf: 82 0f     jmp   22cfh
  20c1: 9c 05     call  1cc7h
  20c3: 62 d0 00  mov   reg[CUR_PP],000h
  20c6: 39 00     cmp   A,000h
  20c8: a2 01     jz    22cah
  20ca: 50 00     mov   A,000h
  20cc: 08        push  A
  20cd: 50 08     mov   A,008h
  20cf: 08        push  A
  20d0: 50 00     mov   A,000h
  20d2: 08        push  A
  20d3: 50 cc     mov   A,0cch
  20d5: 08        push  A
  20d6: 5a ec     mov   [__r1],X
  20d8: 06 ec 02  add   [__r1],002h
  20db: 50 03     mov   A,003h
  20dd: 08        push  A
  20de: 51 ec     mov   A,[__r1]
  20e0: 08        push  A
  20e1: 7c 2d 63  lcall _memcpyLMM
  20e4: 62 d0 00  mov   reg[CUR_PP],000h
  20e7: 5a ec     mov   [__r1],X
  20e9: 06 ec 02  add   [__r1],002h
  20ec: 50 03     mov   A,003h
  20ee: 08        push  A
  20ef: 51 ec     mov   A,[__r1]
  20f1: 08        push  A
  20f2: 7c 12 c3  lcall _validateUserCode
  20f5: 38 f8     add   SP,0f8h
  20f7: 62 d0 00  mov   reg[CUR_PP],000h
  20fa: 39 00     cmp   A,000h
  20fc: b1 cd     jnz   22cah
  20fe: 9b c8     call  1cc7h
  2100: 62 d0 00  mov   reg[CUR_PP],000h
  2103: 39 00     cmp   A,000h
  2105: a1 c4     jz    22cah
  2107: 50 00     mov   A,000h
  2109: 08        push  A
  210a: 50 08     mov   A,008h
  210c: 08        push  A
  210d: 50 00     mov   A,000h
  210f: 08        push  A
  2110: 50 cc     mov   A,0cch
  2112: 08        push  A
  2113: 5a ec     mov   [__r1],X
  2115: 06 ec 02  add   [__r1],002h
  2118: 50 03     mov   A,003h
  211a: 08        push  A
  211b: 51 ec     mov   A,[__r1]
  211d: 08        push  A
  211e: 7c 2d bf  lcall _memcmp
  2121: 38 fa     add   SP,0fah
  2123: 62 d0 00  mov   reg[CUR_PP],000h
  2126: 3c ed 00  cmp   [__r0],000h
  2129: b1 a0     jnz   22cah
  212b: 3c ec 00  cmp   [__r1],000h
  212e: b1 9b     jnz   22cah
  2130: 7c 13 72  lcall _findEmptyUserSlot
  2133: 62 d0 00  mov   reg[CUR_PP],000h
  2136: 54 0a     mov   [X+ADCINC_fMode],A
  2138: 39 14     cmp   A,014h
  213a: d1 8f     jnc   22cah
  213c: 50 00     mov   A,000h
  213e: 08        push  A
  213f: 50 cc     mov   A,0cch
  2141: 08        push  A
  2142: 52 0a     mov   A,[X+ADCINC_fMode]
  2144: 08        push  A
  2145: 7c 12 ef  lcall _updateUserCode
  2148: 38 fd     add   SP,0fdh
  214a: 62 d0 00  mov   reg[CUR_PP],000h
  214d: 50 01     mov   A,001h
  214f: 81 7f     jmp   22cfh
  2151: 9b 75     call  1cc7h
  2153: 62 d0 00  mov   reg[CUR_PP],000h
  2156: 39 00     cmp   A,000h
  2158: a1 71     jz    22cah
  215a: 50 00     mov   A,000h
  215c: 08        push  A
  215d: 50 08     mov   A,008h
  215f: 08        push  A
  2160: 50 00     mov   A,000h
  2162: 08        push  A
  2163: 50 cc     mov   A,0cch
  2165: 08        push  A
  2166: 5a ec     mov   [__r1],X
  2168: 06 ec 02  add   [__r1],002h
  216b: 50 03     mov   A,003h
  216d: 08        push  A
  216e: 51 ec     mov   A,[__r1]
  2170: 08        push  A
  2171: 7c 2d 63  lcall _memcpyLMM
  2174: 62 d0 00  mov   reg[CUR_PP],000h
  2177: 5a ec     mov   [__r1],X
  2179: 06 ec 02  add   [__r1],002h
  217c: 50 03     mov   A,003h
  217e: 08        push  A
  217f: 51 ec     mov   A,[__r1]
  2181: 08        push  A
  2182: 7c 12 c3  lcall _validateUserCode
  2185: 38 f8     add   SP,0f8h
  2187: 62 d0 00  mov   reg[CUR_PP],000h
  218a: 39 00     cmp   A,000h
  218c: a1 3d     jz    22cah
  218e: 9b 38     call  1cc7h
  2190: 62 d0 00  mov   reg[CUR_PP],000h
  2193: 39 00     cmp   A,000h
  2195: a1 34     jz    22cah
  2197: 50 00     mov   A,000h
  2199: 08        push  A
  219a: 50 08     mov   A,008h
  219c: 08        push  A
  219d: 50 00     mov   A,000h
  219f: 08        push  A
  21a0: 50 cc     mov   A,0cch
  21a2: 08        push  A
  21a3: 5a ec     mov   [__r1],X
  21a5: 06 ec 02  add   [__r1],002h
  21a8: 50 03     mov   A,003h
  21aa: 08        push  A
  21ab: 51 ec     mov   A,[__r1]
  21ad: 08        push  A
  21ae: 7c 2d bf  lcall _memcmp
  21b1: 38 fa     add   SP,0fah
  21b3: 62 d0 00  mov   reg[CUR_PP],000h
  21b6: 3c ed 00  cmp   [__r0],000h
  21b9: b1 10     jnz   22cah
  21bb: 3c ec 00  cmp   [__r1],000h
  21be: b1 0b     jnz   22cah
  21c0: 62 d0 00  mov   reg[CUR_PP],000h
  21c3: 5a ec     mov   [__r1],X
  21c5: 06 ec 02  add   [__r1],002h
  21c8: 50 03     mov   A,003h
  21ca: 08        push  A
  21cb: 51 ec     mov   A,[__r1]
  21cd: 08        push  A
  21ce: 7c 11 c6  lcall _searchUserCode
  21d1: 38 fe     add   SP,0feh
  21d3: 62 d0 00  mov   reg[CUR_PP],000h
  21d6: 54 0a     mov   [X+ADCINC_fMode],A
  21d8: 39 14     cmp   A,014h
  21da: d0 ef     jnc   22cah
  21dc: 52 0a     mov   A,[X+ADCINC_fMode]
  21de: 08        push  A
  21df: 7c 13 2d  lcall _deleteUser
  21e2: 38 ff     add   SP,0ffh
  21e4: 62 d0 00  mov   reg[CUR_PP],000h
  21e7: 50 01     mov   A,001h
  21e9: 80 e5     jmp   22cfh
  21eb: 62 d0 00  mov   reg[CUR_PP],000h
  21ee: 3c f7 00  cmp   [0f7h],000h
  21f1: b0 09     jnz   21fbh
  21f3: 56 03 01  mov   [X+Port_5_Data_SHADE],001h
  21f6: 56 02 00  mov   [X+_Port_3_Data_SHADE],000h
  21f9: 80 07     jmp   2201h
  21fb: 56 03 00  mov   [X+Port_5_Data_SHADE],000h
  21fe: 56 02 00  mov   [X+_Port_3_Data_SHADE],000h
  2201: 52 03     mov   A,[X+Port_5_Data_SHADE]
  2203: 62 d0 00  mov   reg[CUR_PP],000h
  2206: 53 f7     mov   [0f7h],A
  2208: 7c 10 50  lcall _updateSystemConfig
  220b: 62 d0 00  mov   reg[CUR_PP],000h
  220e: 50 01     mov   A,001h
  2210: 80 be     jmp   22cfh
  2212: 9a b4     call  1cc7h
  2214: 62 d0 00  mov   reg[CUR_PP],000h
  2217: 39 00     cmp   A,000h
  2219: a0 b0     jz    22cah
  221b: 50 00     mov   A,000h
  221d: 08        push  A
  221e: 50 cc     mov   A,0cch
  2220: 08        push  A
  2221: 7c 12 46  lcall _validateMasterCode
  2224: 38 fe     add   SP,0feh
  2226: 62 d0 00  mov   reg[CUR_PP],000h
  2229: 39 00     cmp   A,000h
  222b: a0 9e     jz    22cah
  222d: 7c 13 57  lcall _deleteAllUsers
  2230: 62 d0 00  mov   reg[CUR_PP],000h
  2233: 50 01     mov   A,001h
  2235: 80 99     jmp   22cfh
  2237: 62 d0 00  mov   reg[CUR_PP],000h
  223a: 3c f6 00  cmp   [0f6h],000h
  223d: b0 09     jnz   2247h
  223f: 56 03 01  mov   [X+Port_5_Data_SHADE],001h
  2242: 56 02 00  mov   [X+_Port_3_Data_SHADE],000h
  2245: 80 07     jmp   224dh
  2247: 56 03 00  mov   [X+Port_5_Data_SHADE],000h
  224a: 56 02 00  mov   [X+_Port_3_Data_SHADE],000h
  224d: 52 03     mov   A,[X+Port_5_Data_SHADE]
  224f: 62 d0 00  mov   reg[CUR_PP],000h
  2252: 53 f6     mov   [0f6h],A
  2254: 7c 10 50  lcall _updateSystemConfig
  2257: 62 d0 00  mov   reg[CUR_PP],000h
  225a: 50 01     mov   A,001h
  225c: 80 72     jmp   22cfh
  225e: 56 02 00  mov   [X+_Port_3_Data_SHADE],000h
  2261: 9a 65     call  1cc7h
  2263: 62 d0 00  mov   reg[CUR_PP],000h
  2266: 39 00     cmp   A,000h
  2268: a0 54     jz    22bdh
  226a: 50 00     mov   A,000h
  226c: 08        push  A
  226d: 50 cc     mov   A,0cch
  226f: 08        push  A
  2270: 7c 12 46  lcall _validateMasterCode
  2273: 38 fe     add   SP,0feh
  2275: 62 d0 00  mov   reg[CUR_PP],000h
  2278: 39 00     cmp   A,000h
  227a: a0 42     jz    22bdh
  227c: 93 21     call  259eh
  227e: 62 d0 02  mov   reg[CUR_PP],002h
  2281: 55 09 01  mov   [009h],001h ; or possibly ADCINC_bState, _ADCINC_bState
  2284: 9a 6f     call  1cf4h
  2286: 62 d0 00  mov   reg[CUR_PP],000h
  2289: 39 00     cmp   A,000h
  228b: a0 31     jz    22bdh
  228d: 9a d8     call  1d66h
  228f: 62 d0 00  mov   reg[CUR_PP],000h
  2292: 39 00     cmp   A,000h
  2294: a0 28     jz    22bdh
  2296: 9b 2c     call  1dc3h
  2298: 62 d0 00  mov   reg[CUR_PP],000h
  229b: 39 00     cmp   A,000h
  229d: a0 1f     jz    22bdh
  229f: 9b 65     call  1e05h
  22a1: 62 d0 00  mov   reg[CUR_PP],000h
  22a4: 39 00     cmp   A,000h
  22a6: a0 16     jz    22bdh
  22a8: 9c 4f     call  1ef8h
  22aa: 62 d0 00  mov   reg[CUR_PP],000h
  22ad: 39 00     cmp   A,000h
  22af: a0 0d     jz    22bdh
  22b1: 9c cd     call  1f7fh
  22b3: 62 d0 00  mov   reg[CUR_PP],000h
  22b6: 39 00     cmp   A,000h
  22b8: a0 04     jz    22bdh
  22ba: 56 02 01  mov   [X+_Port_3_Data_SHADE],001h
  22bd: 62 d0 02  mov   reg[CUR_PP],002h
  22c0: 55 09 00  mov   [009h],000h ; or possibly ADCINC_bState, _ADCINC_bState
  22c3: 52 02     mov   A,[X+002h] ; or possibly Port_3_Data_SHADE, _Port_3_Data_SHADE
  22c5: 62 d0 00  mov   reg[CUR_PP],000h
  22c8: 80 06     jmp   22cfh
  22ca: 62 d0 00  mov   reg[CUR_PP],000h
  22cd: 50 00     mov   A,000h
  22cf: 38 f5     add   SP,0f5h
  22d1: 20        pop   X
  22d2: 7f        ret

_programEmtek:
  22d3: 9c ec     call  1fc0h
  22d5: 99 f1     call  1cc7h
  22d7: 62 d0 00  mov   reg[CUR_PP],000h
  22da: 39 00     cmp   A,000h
  22dc: a0 15     jz    22f2h
  22de: 9c fd     call  1fdch
  22e0: 62 d0 00  mov   reg[CUR_PP],000h
  22e3: 39 00     cmp   A,000h
  22e5: a0 0c     jz    22f2h
  22e7: 9c e6     call  1fceh
  22e9: 92 1b     call  2505h
  22eb: 62 d0 00  mov   reg[CUR_PP],000h
  22ee: 53 ed     mov   [__r0],A
  22f0: 80 08     jmp   22f9h
  22f2: 9c db     call  1fceh
  22f4: 92 21     call  2516h
  22f6: 62 d0 00  mov   reg[CUR_PP],000h
  22f9: 7c 10 36  lcall _loadSystemConfig
  22fc: 7f        ret

_avPlay:
  22fd: 10        push  X
  22fe: 4f        mov   X,SP
  22ff: 38 04     add   SP,004h
  2301: 56 01 00  mov   [X+_Port_2_Data_SHADE],000h
  2304: 56 00 00  mov   [X+__data_start],000h ; or possibly _fillerBuffer1, _globalSystemFlags
  2307: 81 cd     jmp   24d5h
  2309: 62 d0 00  mov   reg[CUR_PP],000h
  230c: 52 00     mov   A,[X+__data_start] ; or possibly _fillerBuffer1, _globalSystemFlags
  230e: 53 ec     mov   [__r1],A
  2310: 55 ed 00  mov   [__r0],000h
  2313: 52 fc     mov   A,[X+SROM_Clock]
  2315: 04 ec     add   [__r1],A
  2317: 52 fb     mov   A,[X+SROM_Pointer]
  2319: 0c ed     adc   [__r0],A
  231b: 51 ed     mov   A,[__r0]
  231d: 10        push  X
  231e: 58 ec     mov   X,[__r1]
  2320: 28        romx
  2321: 20        pop   X
  2322: 54 03     mov   [X+Port_5_Data_SHADE],A
  2324: 56 02 00  mov   [X+_Port_3_Data_SHADE],000h
  2327: 52 03     mov   A,[X+Port_5_Data_SHADE]
  2329: 11 00     sub   A,000h
  232b: 52 02     mov   A,[X+_Port_3_Data_SHADE]
  232d: 31 80     xor   A,080h
  232f: 19 80     sbb   A,080h
  2331: c1 a1     jc    24d3h
  2333: 50 1c     mov   A,01ch
  2335: 13 03     sub   A,[X+003h] ; or possibly _Port_5_Data_SHADE, Port_5_Data_SHADE
  2337: 52 02     mov   A,[X+_Port_3_Data_SHADE]
  2339: 31 80     xor   A,080h
  233b: 62 d0 00  mov   reg[CUR_PP],000h
  233e: 53 e1     mov   [__rX],A
  2340: 50 80     mov   A,080h
  2342: 1a e1     sbb   A,[__rX]
  2344: c1 8e     jc    24d3h
  2346: 62 d0 00  mov   reg[CUR_PP],000h
  2349: 52 03     mov   A,[X+Port_5_Data_SHADE]
  234b: 53 ec     mov   [__r1],A
  234d: 52 02     mov   A,[X+_Port_3_Data_SHADE]
  234f: 53 ed     mov   [__r0],A
  2351: 65 ec     asl   [__r1]
  2353: 6b ed     rlc   [__r0]
  2355: 06 ec c6  add   [__r1],0c6h
  2358: 0e ed 02  adc   [__r0],002h
  235b: 51 ed     mov   A,[__r0]
  235d: 10        push  X
  235e: 08        push  A
  235f: 58 ec     mov   X,[__r1]
  2361: 28        romx
  2362: 53 ed     mov   [__r0],A
  2364: 18        pop   A
  2365: 75        inc   X
  2366: 09 00     adc   A,000h
  2368: 28        romx
  2369: 53 ec     mov   [__r1],A
  236b: 20        pop   X
  236c: 51 ed     mov   A,[__r0]
  236e: 08        push  A
  236f: 51 ec     mov   A,[__r1]
  2371: 08        push  A
  2372: 7f        ret

  2373: 10        push  X
  2374: 7c 07 f0  lcall _LED_Yellow_On
  2377: 20        pop   X
  2378: 81 5a     jmp   24d3h
  237a: 10        push  X
  237b: 7c 07 f4  lcall LED_Yellow_Start
  237e: 20        pop   X
  237f: 81 53     jmp   24d3h
  2381: 10        push  X
  2382: 7c 08 0e  lcall LED_Yellow_Invert
  2385: 20        pop   X
  2386: 81 4c     jmp   24d3h
  2388: 10        push  X
  2389: 7c 08 6c  lcall LED_Green_On
  238c: 20        pop   X
  238d: 81 45     jmp   24d3h
  238f: 10        push  X
  2390: 7c 08 70  lcall LED_Green_Start
  2393: 20        pop   X
  2394: 81 3e     jmp   24d3h
  2396: 10        push  X
  2397: 7c 08 2e  lcall LED_Red_On
  239a: 20        pop   X
  239b: 81 37     jmp   24d3h
  239d: 10        push  X
  239e: 7c 08 32  lcall LED_Red_Off
  23a1: 20        pop   X
  23a2: 81 30     jmp   24d3h
  23a4: 10        push  X
  23a5: 7c 0a 35  lcall _BackLight1_On
  23a8: 20        pop   X
  23a9: 81 29     jmp   24d3h
  23ab: 10        push  X
  23ac: 7c 0a 39  lcall _BackLight1_Start
  23af: 20        pop   X
  23b0: 81 22     jmp   24d3h
  23b2: 10        push  X
  23b3: 7c 09 f7  lcall BackLight2_On
  23b6: 20        pop   X
  23b7: 81 1b     jmp   24d3h
  23b9: 10        push  X
  23ba: 7c 09 fb  lcall _BackLight2_Off
  23bd: 20        pop   X
  23be: 81 14     jmp   24d3h
  23c0: 10        push  X
  23c1: 7c 09 b9  lcall _BackLight3_On
  23c4: 20        pop   X
  23c5: 81 0d     jmp   24d3h
  23c7: 10        push  X
  23c8: 7c 09 bd  lcall BackLight3_Stop
  23cb: 20        pop   X
  23cc: 81 06     jmp   24d3h
  23ce: 10        push  X
  23cf: 7c 09 7b  lcall _BackLight4_On
  23d2: 20        pop   X
  23d3: 80 ff     jmp   24d3h
  23d5: 10        push  X
  23d6: 7c 09 7f  lcall BackLight4_Stop
  23d9: 20        pop   X
  23da: 80 f8     jmp   24d3h
  23dc: 10        push  X
  23dd: 7c 09 3d  lcall BackLight5_On
  23e0: 20        pop   X
  23e1: 80 f1     jmp   24d3h
  23e3: 10        push  X
  23e4: 7c 09 41  lcall _BackLight5_Stop
  23e7: 20        pop   X
  23e8: 80 ea     jmp   24d3h
  23ea: 91 b3     call  259eh
  23ec: 91 d5     call  25c2h
  23ee: 80 e4     jmp   24d3h
  23f0: 10        push  X
  23f1: 7c 05 bf  lcall _Sounder_On
  23f4: 20        pop   X
  23f5: 80 dd     jmp   24d3h
  23f7: 62 d0 00  mov   reg[CUR_PP],000h
  23fa: 3c f6 00  cmp   [0f6h],000h
  23fd: b0 09     jnz   2407h
  23ff: 62 d0 02  mov   reg[CUR_PP],002h
  2402: 3c 01 00  cmp   [001h],000h ; or possibly Port_2_Data_SHADE, _Port_2_Data_SHADE
  2405: a0 cd     jz    24d3h
  2407: 10        push  X
  2408: 7c 05 bf  lcall _Sounder_On
  240b: 20        pop   X
  240c: 80 c6     jmp   24d3h
  240e: 10        push  X
  240f: 7c 05 c3  lcall _Sounder_Start
  2412: 20        pop   X
  2413: 80 bf     jmp   24d3h
  2415: 50 00     mov   A,000h
  2417: 08        push  A
  2418: 50 32     mov   A,032h
  241a: 08        push  A
  241b: 7c 18 b9  lcall _delayInMs
  241e: 38 fe     add   SP,0feh
  2420: 62 d0 00  mov   reg[CUR_PP],000h
  2423: 53 ed     mov   [__r0],A
  2425: 52 01     mov   A,[X+_Port_2_Data_SHADE]
  2427: 2a ed     or    A,[__r0]
  2429: 54 01     mov   [X+_Port_2_Data_SHADE],A
  242b: 80 a7     jmp   24d3h
  242d: 50 00     mov   A,000h
  242f: 08        push  A
  2430: 50 64     mov   A,064h
  2432: 08        push  A
  2433: 7c 18 b9  lcall _delayInMs
  2436: 38 fe     add   SP,0feh
  2438: 62 d0 00  mov   reg[CUR_PP],000h
  243b: 53 ed     mov   [__r0],A
  243d: 52 01     mov   A,[X+_Port_2_Data_SHADE]
  243f: 2a ed     or    A,[__r0]
  2441: 54 01     mov   [X+_Port_2_Data_SHADE],A
  2443: 80 8f     jmp   24d3h
  2445: 50 00     mov   A,000h
  2447: 08        push  A
  2448: 50 fa     mov   A,0fah
  244a: 08        push  A
  244b: 7c 18 b9  lcall _delayInMs
  244e: 38 fe     add   SP,0feh
  2450: 62 d0 00  mov   reg[CUR_PP],000h
  2453: 53 ed     mov   [__r0],A
  2455: 52 01     mov   A,[X+_Port_2_Data_SHADE]
  2457: 2a ed     or    A,[__r0]
  2459: 54 01     mov   [X+_Port_2_Data_SHADE],A
  245b: 80 77     jmp   24d3h
  245d: 50 01     mov   A,001h
  245f: 08        push  A
  2460: 50 2c     mov   A,02ch
  2462: 08        push  A
  2463: 7c 18 b9  lcall _delayInMs
  2466: 38 fe     add   SP,0feh
  2468: 62 d0 00  mov   reg[CUR_PP],000h
  246b: 53 ed     mov   [__r0],A
  246d: 52 01     mov   A,[X+_Port_2_Data_SHADE]
  246f: 2a ed     or    A,[__r0]
  2471: 54 01     mov   [X+_Port_2_Data_SHADE],A
  2473: 80 5f     jmp   24d3h
  2475: 50 01     mov   A,001h
  2477: 08        push  A
  2478: 50 f4     mov   A,0f4h
  247a: 08        push  A
  247b: 7c 18 b9  lcall _delayInMs
  247e: 38 fe     add   SP,0feh
  2480: 62 d0 00  mov   reg[CUR_PP],000h
  2483: 53 ed     mov   [__r0],A
  2485: 52 01     mov   A,[X+_Port_2_Data_SHADE]
  2487: 2a ed     or    A,[__r0]
  2489: 54 01     mov   [X+_Port_2_Data_SHADE],A
  248b: 80 47     jmp   24d3h
  248d: 50 02     mov   A,002h
  248f: 08        push  A
  2490: 50 58     mov   A,058h
  2492: 08        push  A
  2493: 7c 18 b9  lcall _delayInMs
  2496: 38 fe     add   SP,0feh
  2498: 62 d0 00  mov   reg[CUR_PP],000h
  249b: 53 ed     mov   [__r0],A
  249d: 52 01     mov   A,[X+_Port_2_Data_SHADE]
  249f: 2a ed     or    A,[__r0]
  24a1: 54 01     mov   [X+_Port_2_Data_SHADE],A
  24a3: 80 2f     jmp   24d3h
  24a5: 50 03     mov   A,003h
  24a7: 08        push  A
  24a8: 50 84     mov   A,084h
  24aa: 08        push  A
  24ab: 7c 18 b9  lcall _delayInMs
  24ae: 38 fe     add   SP,0feh
  24b0: 62 d0 00  mov   reg[CUR_PP],000h
  24b3: 53 ed     mov   [__r0],A
  24b5: 52 01     mov   A,[X+_Port_2_Data_SHADE]
  24b7: 2a ed     or    A,[__r0]
  24b9: 54 01     mov   [X+_Port_2_Data_SHADE],A
  24bb: 80 17     jmp   24d3h
  24bd: 50 03     mov   A,003h
  24bf: 08        push  A
  24c0: 50 e8     mov   A,0e8h
  24c2: 08        push  A
  24c3: 7c 18 b9  lcall _delayInMs
  24c6: 38 fe     add   SP,0feh
  24c8: 62 d0 00  mov   reg[CUR_PP],000h
  24cb: 53 ed     mov   [__r0],A
  24cd: 52 01     mov   A,[X+_Port_2_Data_SHADE]
  24cf: 2a ed     or    A,[__r0]
  24d1: 54 01     mov   [X+_Port_2_Data_SHADE],A
  24d3: 77 00     inc   [X+__data_start] ; or possibly _fillerBuffer1, _globalSystemFlags
  24d5: 52 00     mov   A,[X+__data_start] ; or possibly _fillerBuffer1, _globalSystemFlags
  24d7: 3b fa     cmp   A,[X+0fah] ; or possibly SROM_BlockID
  24d9: ce 2f     jc    2309h
  24db: 52 01     mov   A,[X+_Port_2_Data_SHADE]
  24dd: 62 d0 00  mov   reg[CUR_PP],000h
  24e0: 38 fc     add   SP,0fch
  24e2: 20        pop   X
  24e3: 7f        ret

_indicateKeypress:
  24e4: 50 06     mov   A,006h
  24e6: 08        push  A
  24e7: 50 01     mov   A,001h
  24e9: 08        push  A
  24ea: 50 a0     mov   A,0a0h
  24ec: 08        push  A
  24ed: 9e 0e     call  22fch
  24ef: 38 fd     add   SP,0fdh
  24f1: 62 d0 00  mov   reg[CUR_PP],000h
  24f4: 7f        ret

_indicateKeyStringComplete:
  24f5: 50 06     mov   A,006h
  24f7: 08        push  A
  24f8: 50 01     mov   A,001h
  24fa: 08        push  A
  24fb: 50 a6     mov   A,0a6h
  24fd: 08        push  A
  24fe: 9d fd     call  22fch
  2500: 38 fd     add   SP,0fdh
  2502: 62 d0 00  mov   reg[CUR_PP],000h
  2505: 7f        ret

_indicateSuccess:
  2506: 50 0b     mov   A,00bh
  2508: 08        push  A
  2509: 50 01     mov   A,001h
  250b: 08        push  A
  250c: 50 ac     mov   A,0ach
  250e: 08        push  A
  250f: 9d ec     call  22fch
  2511: 38 fd     add   SP,0fdh
  2513: 62 d0 00  mov   reg[CUR_PP],000h
  2516: 7f        ret

_indicateFailure:
  2517: 50 0f     mov   A,00fh
  2519: 08        push  A
  251a: 50 01     mov   A,001h
  251c: 08        push  A
  251d: 50 b7     mov   A,0b7h
  251f: 08        push  A
  2520: 9d db     call  22fch
  2522: 38 fd     add   SP,0fdh
  2524: 62 d0 00  mov   reg[CUR_PP],000h
  2527: 7f        ret

_indicateAccessDenied:
  2528: 50 0b     mov   A,00bh
  252a: 08        push  A
  252b: 50 01     mov   A,001h
  252d: 08        push  A
  252e: 50 c6     mov   A,0c6h
  2530: 08        push  A
  2531: 9d ca     call  22fch
  2533: 38 fd     add   SP,0fdh
  2535: 62 d0 00  mov   reg[CUR_PP],000h
  2538: 7f        ret

_indicatePassageMode:
  2539: 50 03     mov   A,003h
  253b: 08        push  A
  253c: 50 01     mov   A,001h
  253e: 08        push  A
  253f: 50 d1     mov   A,0d1h
  2541: 08        push  A
  2542: 9d b9     call  22fch
  2544: 38 fd     add   SP,0fdh
  2546: 62 d0 00  mov   reg[CUR_PP],000h
  2549: 7f        ret

_indicateLockout:
  254a: 50 04     mov   A,004h
  254c: 08        push  A
  254d: 50 01     mov   A,001h
  254f: 08        push  A
  2550: 50 d4     mov   A,0d4h
  2552: 08        push  A
  2553: 9d a8     call  22fch
  2555: 38 fd     add   SP,0fdh
  2557: 62 d0 00  mov   reg[CUR_PP],000h
  255a: 7f        ret

_indicateLowBattery:
  255b: 50 1a     mov   A,01ah
  255d: 08        push  A
  255e: 50 01     mov   A,001h
  2560: 08        push  A
  2561: 50 d8     mov   A,0d8h
  2563: 08        push  A
  2564: 9d 97     call  22fch
  2566: 38 fd     add   SP,0fdh
  2568: 62 d0 00  mov   reg[CUR_PP],000h
  256b: 7f        ret

_indicateBlackoutMode:
  256c: 50 13     mov   A,013h
  256e: 08        push  A
  256f: 50 01     mov   A,001h
  2571: 08        push  A
  2572: 50 f2     mov   A,0f2h
  2574: 08        push  A
  2575: 9d 86     call  22fch
  2577: 38 fd     add   SP,0fdh
  2579: 62 d0 00  mov   reg[CUR_PP],000h
  257c: 7f        ret

_indicateProgrammingModeEntered:
  257d: 50 11     mov   A,011h
  257f: 08        push  A
  2580: 50 02     mov   A,002h
  2582: 08        push  A
  2583: 50 05     mov   A,005h
  2585: 08        push  A
  2586: 9d 75     call  22fch
  2588: 38 fd     add   SP,0fdh
  258a: 62 d0 00  mov   reg[CUR_PP],000h
  258d: 7f        ret

_indicateLockoutOccurred:
  258e: 50 1c     mov   A,01ch
  2590: 08        push  A
  2591: 50 02     mov   A,002h
  2593: 08        push  A
  2594: 50 16     mov   A,016h
  2596: 08        push  A
  2597: 9d 64     call  22fch
  2599: 38 fd     add   SP,0fdh
  259b: 62 d0 00  mov   reg[CUR_PP],000h
  259e: 7f        ret

_ledAllOff:
  259f: 10        push  X
  25a0: 7c 07 f4  lcall LED_Yellow_Start
  25a3: 7c 08 32  lcall LED_Red_Off
  25a6: 7c 08 70  lcall LED_Green_Start
  25a9: 20        pop   X
  25aa: 7f        ret

_backlightEnable:
  25ab: 10        push  X
  25ac: 7c 0a 35  lcall _BackLight1_On
  25af: 7c 09 f7  lcall BackLight2_On
  25b2: 7c 09 b9  lcall _BackLight3_On
  25b5: 7c 09 7b  lcall _BackLight4_On
  25b8: 7c 09 3d  lcall BackLight5_On
  25bb: 20        pop   X
  25bc: 62 d0 02  mov   reg[CUR_PP],002h
  25bf: 55 0b 01  mov   [00bh],001h ; or possibly _ADCINC_bNumSamples, ADCINC_bNumSamples
  25c2: 7f        ret

_backlightDisable:
  25c3: 10        push  X
  25c4: 7c 0a 39  lcall _BackLight1_Start
  25c7: 7c 09 fb  lcall _BackLight2_Off
  25ca: 7c 09 bd  lcall BackLight3_Stop
  25cd: 7c 09 7f  lcall BackLight4_Stop
  25d0: 7c 09 41  lcall _BackLight5_Stop
  25d3: 20        pop   X
  25d4: 62 d0 02  mov   reg[CUR_PP],002h
  25d7: 55 0b 00  mov   [00bh],000h ; or possibly _ADCINC_bNumSamples, ADCINC_bNumSamples
  25da: 7f        ret

_readBatteryVoltage:
  25db: 10        push  X
  25dc: 4f        mov   X,SP
  25dd: 38 02     add   SP,002h
  25df: 9f e2     call  25c2h
  25e1: 62 63 15  mov   reg[ARF_CR],015h
  25e4: 10        push  X
  25e5: 7c 05 22  lcall __psoc_config_end
  25e8: 20        pop   X
  25e9: 10        push  X
  25ea: 50 03     mov   A,003h
  25ec: 7c 06 42  lcall _PGA_Start
  25ef: 20        pop   X
  25f0: 10        push  X
  25f1: 50 03     mov   A,003h
  25f3: 7c 0a f3  lcall ADCINC_Start
  25f6: 20        pop   X
  25f7: 10        push  X
  25f8: 50 00     mov   A,000h
  25fa: 7c 0b 31  lcall ADCINC_GetSamples
  25fd: 20        pop   X
  25fe: 10        push  X
  25ff: 7c 0b 7a  lcall ADCINC_fIsDataAvailable
  2602: 62 d0 00  mov   reg[CUR_PP],000h
  2605: 20        pop   X
  2606: 39 00     cmp   A,000h
  2608: af f5     jz    25feh
  260a: 10        push  X
  260b: 7c 0b 80  lcall _ADCINC_iClearFlagGetData
  260e: 62 d0 00  mov   reg[CUR_PP],000h
  2611: 5a ed     mov   [__r0],X
  2613: 20        pop   X
  2614: 54 01     mov   [X+_Port_2_Data_SHADE],A
  2616: 51 ed     mov   A,[__r0]
  2618: 54 00     mov   [X+__data_start],A ; or possibly _fillerBuffer1, _globalSystemFlags
  261a: 10        push  X
  261b: 7c 05 26  lcall _Vbat_En_Stop
  261e: 7c 06 7e  lcall PGA_Stop
  2621: 7c 0b 24  lcall ADCINC_Stop
  2624: 20        pop   X
  2625: 62 63 00  mov   reg[ARF_CR],000h
  2628: 50 59     mov   A,059h
  262a: 13 01     sub   A,[X+001h] ; or possibly Port_2_Data_SHADE, _Port_2_Data_SHADE
  262c: 50 2d     mov   A,02dh
  262e: 1b 00     sbb   A,[X+000h] ; or possibly Port_1_Data_SHADE, NO_SHADOW, _NO_SHADOW, _Port_1_Data_SHADE, __data_start, _fillerBuffer1, _globalSystemFlags
  2630: c0 13     jc    2644h
  2632: 52 01     mov   A,[X+_Port_2_Data_SHADE]
  2634: 11 32     sub   A,032h
  2636: 52 00     mov   A,[X+__data_start] ; or possibly _fillerBuffer1, _globalSystemFlags
  2638: 19 2c     sbb   A,02ch
  263a: c0 09     jc    2644h
  263c: 62 d0 02  mov   reg[CUR_PP],002h
  263f: 55 02 01  mov   [002h],001h ; or possibly Port_3_Data_SHADE, _Port_3_Data_SHADE
  2642: 80 07     jmp   264ah
  2644: 62 d0 02  mov   reg[CUR_PP],002h
  2647: 55 02 00  mov   [002h],000h ; or possibly Port_3_Data_SHADE, _Port_3_Data_SHADE
  264a: 52 01     mov   A,[X+001h] ; or possibly Port_2_Data_SHADE, _Port_2_Data_SHADE
  264c: 11 32     sub   A,032h
  264e: 52 00     mov   A,[X+_globalSystemFlags] ; or possibly Port_1_Data_SHADE, NO_SHADOW, _NO_SHADOW, _Port_1_Data_SHADE, __data_start, _fillerBuffer1
  2650: 19 2c     sbb   A,02ch
  2652: d0 09     jnc   265ch
  2654: 62 d0 02  mov   reg[CUR_PP],002h
  2657: 55 03 01  mov   [003h],001h ; or possibly _Port_5_Data_SHADE, Port_5_Data_SHADE
  265a: 80 07     jmp   2662h
  265c: 62 d0 02  mov   reg[CUR_PP],002h
  265f: 55 03 00  mov   [003h],000h ; or possibly _Port_5_Data_SHADE, Port_5_Data_SHADE
  2662: 62 d0 00  mov   reg[CUR_PP],000h
  2665: 52 01     mov   A,[X+_Port_2_Data_SHADE]
  2667: 53 ec     mov   [__r1],A
  2669: 52 00     mov   A,[X+__data_start] ; or possibly _fillerBuffer1, _globalSystemFlags
  266b: 53 ed     mov   [__r0],A
  266d: 38 fe     add   SP,0feh
  266f: 20        pop   X
  2670: 7f        ret

_checkBatteryVoltage:
  2671: 10        push  X
  2672: 4f        mov   X,SP
  2673: 38 01     add   SP,001h
  2675: 56 00 00  mov   [X+__data_start],000h ; or possibly _fillerBuffer1, _globalSystemFlags
  2678: 9f 61     call  25dah
  267a: 62 d0 02  mov   reg[CUR_PP],002h
  267d: 3c 02 00  cmp   [002h],000h ; or possibly Port_3_Data_SHADE, _Port_3_Data_SHADE
  2680: a0 0a     jz    268bh
  2682: 9e d7     call  255ah
  2684: 62 d0 00  mov   reg[CUR_PP],000h
  2687: 52 fc     mov   A,[X+SROM_Clock]
  2689: 54 00     mov   [X+__data_start],A ; or possibly _fillerBuffer1, _globalSystemFlags
  268b: 62 d0 02  mov   reg[CUR_PP],002h
  268e: 3c 03 00  cmp   [003h],000h ; or possibly _Port_5_Data_SHADE, Port_5_Data_SHADE
  2691: a0 09     jz    269bh
  2693: 9e d7     call  256bh
  2695: 62 d0 00  mov   reg[CUR_PP],000h
  2698: 56 00 01  mov   [X+__data_start],001h ; or possibly _fillerBuffer1, _globalSystemFlags
  269b: 52 00     mov   A,[X+__data_start] ; or possibly _fillerBuffer1, _globalSystemFlags
  269d: 62 d0 00  mov   reg[CUR_PP],000h
  26a0: 38 ff     add   SP,0ffh
  26a2: 20        pop   X
  26a3: 7f        ret

_calculateMotorPWMDutyCycle:
  26a4: 10        push  X
  26a5: 4f        mov   X,SP
  26a6: 38 03     add   SP,003h
  26a8: 9f 31     call  25dah
  26aa: 62 d0 00  mov   reg[CUR_PP],000h
  26ad: 51 ec     mov   A,[__r1]
  26af: 54 02     mov   [X+_Port_3_Data_SHADE],A
  26b1: 51 ed     mov   A,[__r0]
  26b3: 54 01     mov   [X+_Port_2_Data_SHADE],A
  26b5: 56 00 00  mov   [X+__data_start],000h ; or possibly _fillerBuffer1, _globalSystemFlags
  26b8: 80 73     jmp   272ch
  26ba: 62 d0 00  mov   reg[CUR_PP],000h
  26bd: 52 00     mov   A,[X+__data_start] ; or possibly _fillerBuffer1, _globalSystemFlags
  26bf: 53 ec     mov   [__r1],A
  26c1: 50 00     mov   A,000h
  26c3: 08        push  A
  26c4: 51 ec     mov   A,[__r1]
  26c6: 08        push  A
  26c7: 50 00     mov   A,000h
  26c9: 08        push  A
  26ca: 50 03     mov   A,003h
  26cc: 08        push  A
  26cd: 7c 2c 9f  lcall __mul16
  26d0: 38 fc     add   SP,0fch
  26d2: 51 e1     mov   A,[__rX]
  26d4: 53 ec     mov   [__r1],A
  26d6: 51 e0     mov   A,[__rY]
  26d8: 53 ed     mov   [__r0],A
  26da: 06 ec 57  add   [__r1],057h
  26dd: 0e ed 02  adc   [__r0],002h
  26e0: 51 ed     mov   A,[__r0]
  26e2: 10        push  X
  26e3: 08        push  A
  26e4: 58 ec     mov   X,[__r1]
  26e6: 28        romx
  26e7: 53 ed     mov   [__r0],A
  26e9: 18        pop   A
  26ea: 75        inc   X
  26eb: 09 00     adc   A,000h
  26ed: 28        romx
  26ee: 53 ec     mov   [__r1],A
  26f0: 20        pop   X
  26f1: 52 02     mov   A,[X+_Port_3_Data_SHADE]
  26f3: 12 ec     sub   A,[__r1]
  26f5: 52 01     mov   A,[X+_Port_2_Data_SHADE]
  26f7: 1a ed     sbb   A,[__r0]
  26f9: c0 30     jc    272ah
  26fb: 62 d0 00  mov   reg[CUR_PP],000h
  26fe: 52 00     mov   A,[X+__data_start] ; or possibly _fillerBuffer1, _globalSystemFlags
  2700: 53 ec     mov   [__r1],A
  2702: 50 00     mov   A,000h
  2704: 08        push  A
  2705: 51 ec     mov   A,[__r1]
  2707: 08        push  A
  2708: 50 00     mov   A,000h
  270a: 08        push  A
  270b: 50 03     mov   A,003h
  270d: 08        push  A
  270e: 7c 2c 9f  lcall __mul16
  2711: 38 fc     add   SP,0fch
  2713: 51 e1     mov   A,[__rX]
  2715: 53 ec     mov   [__r1],A
  2717: 51 e0     mov   A,[__rY]
  2719: 53 ed     mov   [__r0],A
  271b: 06 ec 59  add   [__r1],059h
  271e: 0e ed 02  adc   [__r0],002h
  2721: 51 ed     mov   A,[__r0]
  2723: 10        push  X
  2724: 58 ec     mov   X,[__r1]
  2726: 28        romx
  2727: 20        pop   X
  2728: 80 0d     jmp   2736h
  272a: 77 00     inc   [X+__data_start] ; or possibly _fillerBuffer1, _globalSystemFlags
  272c: 3d 00 39  cmp   [X+000h],039h ; or possibly Port_1_Data_SHADE, NO_SHADOW, _NO_SHADOW, _Port_1_Data_SHADE, __data_start, _fillerBuffer1, _globalSystemFlags
  272f: cf 8a     jc    26bah
  2731: 62 d0 00  mov   reg[CUR_PP],000h
  2734: 50 ba     mov   A,0bah
  2736: 38 fd     add   SP,0fdh
  2738: 20        pop   X
  2739: 7f        ret

_motorCommonRun:
  273a: 10        push  X
  273b: 4f        mov   X,SP
  273c: 38 07     add   SP,007h
  273e: 43 16 12  or    reg[PRT5GS],012h
  2741: 9f 61     call  26a3h
  2743: 62 d0 00  mov   reg[CUR_PP],000h
  2746: 54 01     mov   [X+_Port_2_Data_SHADE],A
  2748: 56 02 00  mov   [X+_Port_3_Data_SHADE],000h
  274b: 81 49     jmp   2895h
  274d: 62 d0 02  mov   reg[CUR_PP],002h
  2750: 3c 08 00  cmp   [008h],000h ; or possibly ADCINC_fStatus, _ADCINC_fStatus
  2753: a0 2f     jz    2783h
  2755: 62 d0 00  mov   reg[CUR_PP],000h
  2758: 52 02     mov   A,[X+_Port_3_Data_SHADE]
  275a: 53 ec     mov   [__r1],A
  275c: 50 00     mov   A,000h
  275e: 08        push  A
  275f: 51 ec     mov   A,[__r1]
  2761: 08        push  A
  2762: 50 00     mov   A,000h
  2764: 08        push  A
  2765: 50 0a     mov   A,00ah
  2767: 08        push  A
  2768: 7c 2c 9f  lcall __mul16
  276b: 38 fc     add   SP,0fch
  276d: 51 e1     mov   A,[__rX]
  276f: 53 ec     mov   [__r1],A
  2771: 51 e0     mov   A,[__rY]
  2773: 53 ed     mov   [__r0],A
  2775: 51 ec     mov   A,[__r1]
  2777: 01 90     add   A,090h
  2779: 54 06     mov   [X+006h],A
  277b: 51 ed     mov   A,[__r0]
  277d: 09 02     adc   A,002h
  277f: 54 05     mov   [X+005h],A
  2781: 80 2d     jmp   27afh
  2783: 62 d0 00  mov   reg[CUR_PP],000h
  2786: 52 02     mov   A,[X+_Port_3_Data_SHADE]
  2788: 53 ec     mov   [__r1],A
  278a: 50 00     mov   A,000h
  278c: 08        push  A
  278d: 51 ec     mov   A,[__r1]
  278f: 08        push  A
  2790: 50 00     mov   A,000h
  2792: 08        push  A
  2793: 50 0a     mov   A,00ah
  2795: 08        push  A
  2796: 7c 2c 9f  lcall __mul16
  2799: 38 fc     add   SP,0fch
  279b: 51 e1     mov   A,[__rX]
  279d: 53 ec     mov   [__r1],A
  279f: 51 e0     mov   A,[__rY]
  27a1: 53 ed     mov   [__r0],A
  27a3: 51 ec     mov   A,[__r1]
  27a5: 01 95     add   A,095h
  27a7: 54 06     mov   [X+006h],A
  27a9: 51 ed     mov   A,[__r0]
  27ab: 09 02     adc   A,002h
  27ad: 54 05     mov   [X+005h],A
  27af: 52 06     mov   A,[X+006h]
  27b1: 54 04     mov   [X+ADCINC_iResult],A
  27b3: 52 05     mov   A,[X+005h]
  27b5: 54 03     mov   [X+Port_5_Data_SHADE],A
  27b7: 71 10     or    F,010h
  27b9: 5d 26     mov   A,reg[DBB01OU]
  27bb: 70 cf     and   F,0cfh
  27bd: 62 d0 00  mov   reg[CUR_PP],000h
  27c0: 53 ed     mov   [__r0],A
  27c2: 26 ed fc  and   [__r0],0fch
  27c5: 52 fc     mov   A,[X+SROM_Clock]
  27c7: 2c ed     or    [__r0],A
  27c9: 51 ed     mov   A,[__r0]
  27cb: 71 10     or    F,010h
  27cd: 60 26     mov   reg[DBB01OU],A
  27cf: 10        push  X
  27d0: 50 ba     mov   A,0bah
  27d2: 70 cf     and   F,0cfh
  27d4: 7c 06 0c  lcall _PWM8_WritePeriod
  27d7: 20        pop   X
  27d8: 10        push  X
  27d9: 50 00     mov   A,000h
  27db: 7c 06 0f  lcall PWM8_WritePulseWidth
  27de: 7c 06 04  lcall _PWM8_Start
  27e1: 20        pop   X
  27e2: 3d fc 01  cmp   [X+0fch],001h ; or possibly SROM_Clock
  27e5: b0 0b     jnz   27f1h
  27e7: 10        push  X
  27e8: 7c 07 3d  lcall _Motor_A_HS_Start
  27eb: 7c 06 bf  lcall _Motor_B_HS_On
  27ee: 20        pop   X
  27ef: 80 09     jmp   27f9h
  27f1: 10        push  X
  27f2: 7c 06 c3  lcall Motor_B_HS_Stop
  27f5: 7c 07 39  lcall _Motor_A_HS_On
  27f8: 20        pop   X
  27f9: 56 00 00  mov   [X+__data_start],000h ; or possibly _fillerBuffer1, _globalSystemFlags
  27fc: 80 19     jmp   2816h
  27fe: 10        push  X
  27ff: 52 00     mov   A,[X+__data_start] ; or possibly _fillerBuffer1, _globalSystemFlags
  2801: 7c 06 0f  lcall PWM8_WritePulseWidth
  2804: 20        pop   X
  2805: 50 00     mov   A,000h
  2807: 08        push  A
  2808: 50 01     mov   A,001h
  280a: 08        push  A
  280b: 7c 18 80  lcall _delayInMsAwake
  280e: 38 fe     add   SP,0feh
  2810: 62 d0 00  mov   reg[CUR_PP],000h
  2813: 07 00 10  add   [X+000h],010h ; or possibly Port_1_Data_SHADE, NO_SHADOW, _NO_SHADOW, _Port_1_Data_SHADE, __data_start, _fillerBuffer1, _globalSystemFlags
  2816: 52 00     mov   A,[X+__data_start] ; or possibly _fillerBuffer1, _globalSystemFlags
  2818: 3b 01     cmp   A,[X+001h] ; or possibly Port_2_Data_SHADE, _Port_2_Data_SHADE
  281a: cf e3     jc    27feh
  281c: 10        push  X
  281d: 52 01     mov   A,[X+_Port_2_Data_SHADE]
  281f: 7c 06 0f  lcall PWM8_WritePulseWidth
  2822: 20        pop   X
  2823: 62 d0 00  mov   reg[CUR_PP],000h
  2826: 52 04     mov   A,[X+ADCINC_iResult]
  2828: 53 ec     mov   [__r1],A
  282a: 52 03     mov   A,[X+Port_5_Data_SHADE]
  282c: 10        push  X
  282d: 08        push  A
  282e: 58 ec     mov   X,[__r1]
  2830: 28        romx
  2831: 53 ed     mov   [__r0],A
  2833: 18        pop   A
  2834: 75        inc   X
  2835: 09 00     adc   A,000h
  2837: 28        romx
  2838: 53 ec     mov   [__r1],A
  283a: 20        pop   X
  283b: 51 ed     mov   A,[__r0]
  283d: 08        push  A
  283e: 51 ec     mov   A,[__r1]
  2840: 08        push  A
  2841: 7c 18 80  lcall _delayInMsAwake
  2844: 38 fe     add   SP,0feh
  2846: 62 d0 00  mov   reg[CUR_PP],000h
  2849: 10        push  X
  284a: 7c 06 08  lcall PWM8_Stop
  284d: 20        pop   X
  284e: 62 d0 00  mov   reg[CUR_PP],000h
  2851: 52 02     mov   A,[X+_Port_3_Data_SHADE]
  2853: 01 01     add   A,001h
  2855: 39 01     cmp   A,001h
  2857: d0 3b     jnc   2893h
  2859: 62 d0 00  mov   reg[CUR_PP],000h
  285c: 52 04     mov   A,[X+ADCINC_iResult]
  285e: 01 02     add   A,002h
  2860: 53 ec     mov   [__r1],A
  2862: 52 03     mov   A,[X+Port_5_Data_SHADE]
  2864: 09 00     adc   A,000h
  2866: 10        push  X
  2867: 08        push  A
  2868: 58 ec     mov   X,[__r1]
  286a: 28        romx
  286b: 53 ed     mov   [__r0],A
  286d: 18        pop   A
  286e: 75        inc   X
  286f: 09 00     adc   A,000h
  2871: 28        romx
  2872: 53 ec     mov   [__r1],A
  2874: 20        pop   X
  2875: 51 ed     mov   A,[__r0]
  2877: 08        push  A
  2878: 51 ec     mov   A,[__r1]
  287a: 08        push  A
  287b: 52 04     mov   A,[X+ADCINC_iResult]
  287d: 01 04     add   A,004h
  287f: 53 ec     mov   [__r1],A
  2881: 52 03     mov   A,[X+Port_5_Data_SHADE]
  2883: 09 00     adc   A,000h
  2885: 10        push  X
  2886: 58 ec     mov   X,[__r1]
  2888: 28        romx
  2889: 20        pop   X
  288a: 08        push  A
  288b: 7c 1a 68  lcall _delayInMsSelect
  288e: 38 fd     add   SP,0fdh
  2890: 62 d0 00  mov   reg[CUR_PP],000h
  2893: 77 02     inc   [X+_Port_3_Data_SHADE]
  2895: 3d 02 01  cmp   [X+002h],001h ; or possibly Port_3_Data_SHADE, _Port_3_Data_SHADE
  2898: ce b4     jc    274dh
  289a: 41 16 ed  and   reg[PRT5GS],0edh
  289d: 10        push  X
  289e: 7c 07 3d  lcall _Motor_A_HS_Start
  28a1: 7c 06 c3  lcall Motor_B_HS_Stop
  28a4: 7c 07 00  lcall _Motor_A_LS_Off
  28a7: 7c 06 86  lcall Motor_B_LS_Start
  28aa: 20        pop   X
  28ab: 38 f9     add   SP,0f9h
  28ad: 20        pop   X
  28ae: 7f        ret

_motorUnlock:
  28af: 50 01     mov   A,001h
  28b1: 08        push  A
  28b2: 9e 86     call  2739h
  28b4: 38 ff     add   SP,0ffh
  28b6: 7f        ret

_motorLock:
  28b7: 50 00     mov   A,000h
  28b9: 08        push  A
  28ba: 9e 7e     call  2739h
  28bc: 38 ff     add   SP,0ffh
  28be: 7f        ret

_unlockLockCycle:
  28bf: 10        push  X
  28c0: 4f        mov   X,SP
  28c1: 38 01     add   SP,001h
  28c3: 9f ea     call  28aeh
  28c5: 62 d0 02  mov   reg[CUR_PP],002h
  28c8: 55 05 01  mov   [005h],001h
  28cb: 50 0f     mov   A,00fh
  28cd: 08        push  A
  28ce: 50 a0     mov   A,0a0h
  28d0: 08        push  A
  28d1: 7c 18 b9  lcall _delayInMs
  28d4: 38 fe     add   SP,0feh
  28d6: 54 00     mov   [X+_globalSystemFlags],A ; or possibly Port_1_Data_SHADE, NO_SHADOW, _NO_SHADOW, _Port_1_Data_SHADE, __data_start, _fillerBuffer1
  28d8: 62 d0 02  mov   reg[CUR_PP],002h
  28db: 55 05 00  mov   [005h],000h
  28de: 3d 00 00  cmp   [X+000h],000h ; or possibly Port_1_Data_SHADE, NO_SHADOW, _NO_SHADOW, _Port_1_Data_SHADE, __data_start, _fillerBuffer1, _globalSystemFlags
  28e1: b0 03     jnz   28e5h
  28e3: 9f d2     call  28b6h
  28e5: 38 ff     add   SP,0ffh
  28e7: 20        pop   X
  28e8: 7f        ret

_initSystem:
  28e9: 7c 14 dc  lcall _thumbTurnTestMode
  28ec: 7c 16 46  lcall _setDeadboltPinModeHiZ
  28ef: 7c 16 d0  lcall _pwmPinMode
  28f2: 41 16 bf  and   reg[PRT5GS],0bfh
  28f5: 10        push  X
  28f6: 7c 09 00  lcall BackLightPWM_On
  28f9: 7c 07 3d  lcall _Motor_A_HS_Start
  28fc: 7c 06 c3  lcall Motor_B_HS_Stop
  28ff: 7c 07 00  lcall _Motor_A_LS_Off
  2902: 7c 06 86  lcall Motor_B_LS_Start
  2905: 20        pop   X
  2906: 9c bb     call  25c2h
  2908: 9c 95     call  259eh
  290a: 10        push  X
  290b: 7c 05 c3  lcall _Sounder_Start
  290e: 7c 05 26  lcall _Vbat_En_Stop
  2911: 7c 07 b7  lcall _Lever_SW_1_Off
  2914: 7c 07 7a  lcall _Lever_SW_2_Stop
  2917: 7c 08 c7  lcall _Deadbolt_SW_Start
  291a: 20        pop   X
  291b: 62 4c b0  mov   reg[USBI/O_CR1],0b0h
  291e: 50 00     mov   A,000h
  2920: 08        push  A
  2921: 50 0f     mov   A,00fh
  2923: 08        push  A
  2924: 50 00     mov   A,000h
  2926: 08        push  A
  2927: 08        push  A
  2928: 50 02     mov   A,002h
  292a: 08        push  A
  292b: 50 00     mov   A,000h
  292d: 08        push  A
  292e: 7c 2d 91  lcall _memsetLMM
  2931: 50 00     mov   A,000h
  2933: 08        push  A
  2934: 50 13     mov   A,013h
  2936: 08        push  A
  2937: 50 00     mov   A,000h
  2939: 08        push  A
  293a: 08        push  A
  293b: 50 00     mov   A,000h
  293d: 08        push  A
  293e: 50 cc     mov   A,0cch
  2940: 08        push  A
  2941: 7c 2d 91  lcall _memsetLMM
  2944: 38 f4     add   SP,0f4h
  2946: 7c 11 08  lcall _loadDefaultFactoryDefaults
  2949: 7c 10 36  lcall _loadSystemConfig
  294c: 62 10 e0  mov   reg[PRT4DR],0e0h
  294f: 10        push  X
  2950: 7c 05 5f  lcall Timer16_EnableInt
  2953: 20        pop   X
  2954: 71 01     or    F,001h
  2956: 10        push  X
  2957: 7c 05 67  lcall Timer16_Start
  295a: 20        pop   X
  295b: 50 07     mov   A,007h
  295d: 08        push  A
  295e: 50 d0     mov   A,0d0h
  2960: 08        push  A
  2961: 7c 18 b9  lcall _delayInMs
  2964: 38 fe     add   SP,0feh
  2966: 62 d0 00  mov   reg[CUR_PP],000h
  2969: 7c 14 ea  lcall _initializeSwitches
  296c: 7f        ret

_scanKeypad:
  296d: 10        push  X
  296e: 4f        mov   X,SP
  296f: 38 02     add   SP,002h
  2971: 62 d0 02  mov   reg[CUR_PP],002h
  2974: 3c 06 00  cmp   [006h],000h
  2977: a0 03     jz    297bh
  2979: 81 9f     jmp   2b19h
  297b: 9c 22     call  259eh
  297d: 50 00     mov   A,000h
  297f: 08        push  A
  2980: 50 14     mov   A,014h
  2982: 08        push  A
  2983: 7c 18 80  lcall _delayInMsAwake
  2986: 38 fe     add   SP,0feh
  2988: 62 d0 00  mov   reg[CUR_PP],000h
  298b: 7c 1b 17  lcall _clearKeyBuffer
  298e: 7c 16 de  lcall _readKeypad
  2991: 62 d0 00  mov   reg[CUR_PP],000h
  2994: 39 00     cmp   A,000h
  2996: b1 63     jnz   2afah
  2998: 81 80     jmp   2b19h
  299a: 7c 1b 39  lcall _getAnyKey
  299d: 54 00     mov   [X+__data_start],A ; or possibly _fillerBuffer1, _globalSystemFlags
  299f: 39 00     cmp   A,000h
  29a1: a1 4e     jz    2af0h
  29a3: 62 d0 00  mov   reg[CUR_PP],000h
  29a6: 55 da 05  mov   [0dah],005h
  29a9: 3d 00 21  cmp   [X+000h],021h ; or possibly Port_1_Data_SHADE, NO_SHADOW, _NO_SHADOW, _Port_1_Data_SHADE, __data_start, _fillerBuffer1, _globalSystemFlags
  29ac: b0 03     jnz   29b0h
  29ae: 81 6a     jmp   2b19h
  29b0: 3d 00 23  cmp   [X+000h],023h ; or possibly Port_1_Data_SHADE, NO_SHADOW, _NO_SHADOW, _Port_1_Data_SHADE, __data_start, _fillerBuffer1, _globalSystemFlags
  29b3: b1 21     jnz   2ad5h
  29b5: 62 d0 00  mov   reg[CUR_PP],000h
  29b8: 3c d4 00  cmp   [0d4h],000h
  29bb: a0 90     jz    2a4ch
  29bd: 9c 04     call  25c2h
  29bf: 50 00     mov   A,000h
  29c1: 08        push  A
  29c2: 9c ad     call  2670h
  29c4: 38 ff     add   SP,0ffh
  29c6: 39 00     cmp   A,000h
  29c8: b0 7b     jnz   2a44h
  29ca: 62 d0 00  mov   reg[CUR_PP],000h
  29cd: 3c f7 00  cmp   [0f7h],000h
  29d0: a0 30     jz    2a01h
  29d2: 50 00     mov   A,000h
  29d4: 08        push  A
  29d5: 50 cc     mov   A,0cch
  29d7: 08        push  A
  29d8: 7c 12 c3  lcall _validateUserCode
  29db: 38 fe     add   SP,0feh
  29dd: 39 00     cmp   A,000h
  29df: a0 21     jz    2a01h
  29e1: 62 d0 02  mov   reg[CUR_PP],002h
  29e4: 3c 0e 00  cmp   [00eh],000h
  29e7: a0 06     jz    29eeh
  29e9: 9b a3     call  258dh
  29eb: 62 d0 00  mov   reg[CUR_PP],000h
  29ee: 9e cf     call  28beh
  29f0: 7c 1a fe  lcall _calibrateMaybeILO
  29f3: 62 d0 02  mov   reg[CUR_PP],002h
  29f6: 55 0e 00  mov   [00eh],000h
  29f9: 62 d0 00  mov   reg[CUR_PP],000h
  29fc: 55 d7 00  mov   [0d7h],000h
  29ff: 80 44     jmp   2a44h
  2a01: 9b 25     call  2527h
  2a03: 62 d0 00  mov   reg[CUR_PP],000h
  2a06: 55 d6 00  mov   [0d6h],000h
  2a09: 51 d7     mov   A,[0d7h]
  2a0b: 01 01     add   A,001h
  2a0d: 53 d7     mov   [0d7h],A
  2a0f: 62 d0 00  mov   reg[CUR_PP],000h
  2a12: 39 03     cmp   A,003h
  2a14: b0 2f     jnz   2a44h
  2a16: 56 01 00  mov   [X+_Port_2_Data_SHADE],000h
  2a19: 80 0e     jmp   2a28h
  2a1b: 9b 2d     call  2549h
  2a1d: 62 d0 00  mov   reg[CUR_PP],000h
  2a20: 7c 15 03  lcall _checkThumbTurnChanged
  2a23: 62 d0 00  mov   reg[CUR_PP],000h
  2a26: 77 01     inc   [X+_Port_2_Data_SHADE]
  2a28: 7c 16 bb  lcall _getDeadboltState
  2a2b: 62 d0 00  mov   reg[CUR_PP],000h
  2a2e: 39 00     cmp   A,000h
  2a30: b0 07     jnz   2a38h
  2a32: 50 14     mov   A,014h
  2a34: 3b 01     cmp   A,[X+001h] ; or possibly Port_2_Data_SHADE, _Port_2_Data_SHADE
  2a36: df e4     jnc   2a1bh
  2a38: 62 d0 02  mov   reg[CUR_PP],002h
  2a3b: 55 0e 01  mov   [00eh],001h
  2a3e: 62 d0 00  mov   reg[CUR_PP],000h
  2a41: 55 d7 00  mov   [0d7h],000h
  2a44: 62 d0 00  mov   reg[CUR_PP],000h
  2a47: 55 da 05  mov   [0dah],005h
  2a4a: 80 ce     jmp   2b19h
  2a4c: 62 d0 00  mov   reg[CUR_PP],000h
  2a4f: 55 d5 00  mov   [0d5h],000h
  2a52: 80 52     jmp   2aa5h
  2a54: 50 00     mov   A,000h
  2a56: 08        push  A
  2a57: 50 64     mov   A,064h
  2a59: 08        push  A
  2a5a: 7c 18 b9  lcall _delayInMs
  2a5d: 38 fe     add   SP,0feh
  2a5f: 62 d0 00  mov   reg[CUR_PP],000h
  2a62: 39 00     cmp   A,000h
  2a64: a0 03     jz    2a68h
  2a66: 80 b2     jmp   2b19h
  2a68: 62 d0 00  mov   reg[CUR_PP],000h
  2a6b: 51 d5     mov   A,[0d5h]
  2a6d: 01 01     add   A,001h
  2a6f: 62 d0 00  mov   reg[CUR_PP],000h
  2a72: 53 ed     mov   [__r0],A
  2a74: 62 d0 00  mov   reg[CUR_PP],000h
  2a77: 53 d5     mov   [0d5h],A
  2a79: 62 d0 00  mov   reg[CUR_PP],000h
  2a7c: 50 1e     mov   A,01eh
  2a7e: 3a ed d0  cmp   A,[__r0]
  2a81: 24 9a     and   [09ah],A
  2a83: f9 62     index 23e6h
  2a85: d0 00     jnc   2a86h
  2a87: 7c 17 0f  lcall _waitKeypadIdle
  2a8a: 62 d0 00  mov   reg[CUR_PP],000h
  2a8d: 39 00     cmp   A,000h
  2a8f: b0 0f     jnz   2a9fh
  2a91: 50 01     mov   A,001h
  2a93: 08        push  A
  2a94: 9b db     call  2670h
  2a96: 38 ff     add   SP,0ffh
  2a98: 62 d0 00  mov   reg[CUR_PP],000h
  2a9b: 39 00     cmp   A,000h
  2a9d: a0 03     jz    2aa1h
  2a9f: 80 79     jmp   2b19h
  2aa1: 98 30     call  22d2h
  2aa3: 80 75     jmp   2b19h
  2aa5: 7c 16 de  lcall _readKeypad
  2aa8: 62 d0 00  mov   reg[CUR_PP],000h
  2aab: 39 81     cmp   A,081h
  2aad: af a6     jz    2a54h
  2aaf: 7c 16 bb  lcall _getDeadboltState
  2ab2: 62 d0 00  mov   reg[CUR_PP],000h
  2ab5: 39 00     cmp   A,000h
  2ab7: a0 16     jz    2aceh
  2ab9: 50 00     mov   A,000h
  2abb: 08        push  A
  2abc: 9b b3     call  2670h
  2abe: 38 ff     add   SP,0ffh
  2ac0: 62 d0 00  mov   reg[CUR_PP],000h
  2ac3: 39 00     cmp   A,000h
  2ac5: b0 53     jnz   2b19h
  2ac7: 9d f6     call  28beh
  2ac9: 7c 1a fe  lcall _calibrateMaybeILO
  2acc: 80 4c     jmp   2b19h
  2ace: 9a db     call  25aah
  2ad0: 7c 1b 17  lcall _clearKeyBuffer
  2ad3: 80 1c     jmp   2af0h
  2ad5: 62 d0 02  mov   reg[CUR_PP],002h
  2ad8: 3c 04 00  cmp   [004h],000h ; or possibly _ADCINC_iResult, ADCINC_iResult
  2adb: a0 14     jz    2af0h
  2add: 9a 5a     call  2538h
  2adf: 62 d0 00  mov   reg[CUR_PP],000h
  2ae2: 50 00     mov   A,000h
  2ae4: 08        push  A
  2ae5: 9b 8a     call  2670h
  2ae7: 38 ff     add   SP,0ffh
  2ae9: 62 d0 00  mov   reg[CUR_PP],000h
  2aec: 53 ed     mov   [__r0],A
  2aee: 80 2a     jmp   2b19h
  2af0: 62 d0 02  mov   reg[CUR_PP],002h
  2af3: 3c 06 00  cmp   [006h],000h
  2af6: a0 03     jz    2afah
  2af8: 80 20     jmp   2b19h
  2afa: 62 d0 02  mov   reg[CUR_PP],002h
  2afd: 50 05     mov   A,005h
  2aff: 3a 17 de  cmp   A,[_secondsCounter]
  2b02: 98 62     call  2365h
  2b04: d0 00     jnc   2b05h
  2b06: 3c d4 00  cmp   [0d4h],000h
  2b09: a0 0f     jz    2b19h
  2b0b: 62 d0 02  mov   reg[CUR_PP],002h
  2b0e: 50 05     mov   A,005h
  2b10: 3a 17 d0  cmp   A,[_secondsCounter]
  2b13: 06 9a 12  add   [09ah],012h
  2b16: 62 d0 00  mov   reg[CUR_PP],000h
  2b19: 38 fe     add   SP,0feh
  2b1b: 20        pop   X
  2b1c: 7f        ret

_main:
  2b1d: 9d ca     call  28e8h
  2b1f: 62 d0 00  mov   reg[CUR_PP],000h
  2b22: 55 d5 00  mov   [0d5h],000h
  2b25: 80 34     jmp   2b5ah
  2b27: 50 00     mov   A,000h
  2b29: 08        push  A
  2b2a: 50 64     mov   A,064h
  2b2c: 08        push  A
  2b2d: 7c 18 b9  lcall _delayInMs
  2b30: 38 fe     add   SP,0feh
  2b32: 62 d0 00  mov   reg[CUR_PP],000h
  2b35: 51 d5     mov   A,[0d5h]
  2b37: 01 01     add   A,001h
  2b39: 53 d5     mov   [0d5h],A
  2b3b: 62 d0 00  mov   reg[CUR_PP],000h
  2b3e: 39 1e     cmp   A,01eh
  2b40: c0 19     jc    2b5ah
  2b42: 7c 1a 8d  lcall _calibrateILO
  2b45: 7c 10 70  lcall _loadDefaultSystemConfig
  2b48: 7c 10 bc  lcall _loadDefaultUsers
  2b4b: 99 b9     call  2505h
  2b4d: 62 d0 00  mov   reg[CUR_PP],000h
  2b50: 7c 16 de  lcall _readKeypad
  2b53: 62 d0 00  mov   reg[CUR_PP],000h
  2b56: 39 00     cmp   A,000h
  2b58: bf f7     jnz   2b50h
  2b5a: 7c 16 de  lcall _readKeypad
  2b5d: 39 81     cmp   A,081h
  2b5f: af c7     jz    2b27h
  2b61: 62 d0 00  mov   reg[CUR_PP],000h
  2b64: 3c d5 1e  cmp   [0d5h],01eh
  2b67: d0 09     jnc   2b71h
  2b69: 7c 1a 8d  lcall _calibrateILO
  2b6c: 99 98     call  2505h
  2b6e: 62 d0 00  mov   reg[CUR_PP],000h
  2b71: 62 d0 02  mov   reg[CUR_PP],002h
  2b74: 51 07     mov   A,[007h]
  2b76: 53 08     mov   [008h],A ; or possibly ADCINC_fStatus, _ADCINC_fStatus
  2b78: 51 07     mov   A,[007h]
  2b7a: 53 0d     mov   [00dh],A
  2b7c: 80 8f     jmp   2c0ch
  2b7e: 41 e0 df  and   reg[INT_MSK0],0dfh
  2b81: 62 d0 02  mov   reg[CUR_PP],002h
  2b84: 3c 00 00  cmp   [_globalSystemFlags],000h ; or possibly Port_1_Data_SHADE, NO_SHADOW, _NO_SHADOW, _Port_1_Data_SHADE, __data_start, _fillerBuffer1
  2b87: b0 0e     jnz   2b96h
  2b89: 3c 0d 00  cmp   [00dh],000h
  2b8c: b0 09     jnz   2b96h
  2b8e: 62 d0 00  mov   reg[CUR_PP],000h
  2b91: 3c da 00  cmp   [0dah],000h
  2b94: a0 1f     jz    2bb4h
  2b96: 7c 15 03  lcall _checkThumbTurnChanged
  2b99: 39 00     cmp   A,000h
  2b9b: b0 0b     jnz   2ba7h
  2b9d: 62 d0 02  mov   reg[CUR_PP],002h
  2ba0: 3c 00 00  cmp   [_globalSystemFlags],000h ; or possibly Port_1_Data_SHADE, NO_SHADOW, _NO_SHADOW, _Port_1_Data_SHADE, __data_start, _fillerBuffer1
  2ba3: a0 03     jz    2ba7h
  2ba5: 9d c6     call  296ch
  2ba7: 9a 1a     call  25c2h
  2ba9: 99 f4     call  259eh
  2bab: 7c 16 de  lcall _readKeypad
  2bae: 62 d0 02  mov   reg[CUR_PP],002h
  2bb1: 55 00 00  mov   [_globalSystemFlags],000h ; or possibly Port_1_Data_SHADE, NO_SHADOW, _NO_SHADOW, _Port_1_Data_SHADE, __data_start, _fillerBuffer1
  2bb4: 62 d0 02  mov   reg[CUR_PP],002h
  2bb7: 3c 06 00  cmp   [006h],000h
  2bba: a0 07     jz    2bc2h
  2bbc: 7c 15 03  lcall _checkThumbTurnChanged
  2bbf: 62 d0 00  mov   reg[CUR_PP],000h
  2bc2: 62 d0 00  mov   reg[CUR_PP],000h
  2bc5: 3c da 00  cmp   [0dah],000h
  2bc8: b0 3e     jnz   2c07h
  2bca: 3c d7 00  cmp   [0d7h],000h
  2bcd: b0 09     jnz   2bd7h
  2bcf: 62 d0 02  mov   reg[CUR_PP],002h
  2bd2: 3c 06 00  cmp   [006h],000h
  2bd5: a0 06     jz    2bdch
  2bd7: 43 e0 40  or    reg[INT_MSK0],040h
  2bda: 80 04     jmp   2bdfh
  2bdc: 41 e0 bf  and   reg[INT_MSK0],0bfh
  2bdf: 71 10     or    F,010h
  2be1: 5d e0     mov   A,reg[OSC_CR0]
  2be3: 70 cf     and   F,0cfh
  2be5: 62 d0 00  mov   reg[CUR_PP],000h
  2be8: 53 ed     mov   [__r0],A
  2bea: 26 ed e7  and   [__r0],0e7h
  2bed: 2e ed 18  or    [__r0],018h
  2bf0: 51 ed     mov   A,[__r0]
  2bf2: 71 10     or    F,010h
  2bf4: 60 e0     mov   reg[OSC_CR0],A
  2bf6: 70 cf     and   F,0cfh
  2bf8: 62 e3 38  mov   reg[RES_WDT],038h
  2bfb: 62 da df  mov   reg[INT_CLR0],0dfh
  2bfe: 43 e0 20  or    reg[INT_MSK0],020h
  2c01: 43 ff 08  or    reg[CPU_SCR0],008h
  2c04: 40        nop
  2c05: 80 06     jmp   2c0ch
  2c07: 62 d0 00  mov   reg[CUR_PP],000h
  2c0a: 7a da     dec   [0dah]
  2c0c: 8f 71     jmp   2b7eh
  2c0e: 8f ff     jmp   2c0eh
__divmodu_32X32_32:
  2c10: 10        push  X
  2c11: 4f        mov   X,SP
  2c12: 38 01     add   SP,001h
  2c14: 7c 2c 1f  lcall __i_div32_block_util
  2c17: 38 ff     add   SP,0ffh
  2c19: 20        pop   X
  2c1a: 70 3f     and   F,03fh ; Paging mode changed from 3 to 0
  2c1c: 71 c0     or    F,0c0h ; Paging mode changed from 0 to 3
  2c1e: 7f        ret

__i_div32_block_util:
  2c1f: 5d d0     mov   A,reg[CUR_PP]
  2c21: 08        push  A
  2c22: 62 d0 00  mov   reg[CUR_PP],000h
  2c25: 51 ed     mov   A,[__r0]
  2c27: 08        push  A
  2c28: 50 00     mov   A,000h
  2c2a: 53 ed     mov   [__r0],A
  2c2c: 53 e1     mov   [__rX],A
  2c2e: 53 e0     mov   [__rY],A
  2c30: 53 df     mov   [__rZ],A
  2c32: 56 00 20  mov   [X+__data_start],020h ; or possibly _fillerBuffer1, _globalSystemFlags
  2c35: 66 fc     asl   [X+0fch] ; or possibly SROM_Clock
  2c37: 6c fb     rlc   [X+0fbh] ; or possibly SROM_Pointer
  2c39: 6c fa     rlc   [X+0fah] ; or possibly SROM_BlockID
  2c3b: 6c f9     rlc   [X+0f9h] ; or possibly SROM_Key2
  2c3d: 6b df     rlc   [__rZ]
  2c3f: 6b e0     rlc   [__rY]
  2c41: 6b e1     rlc   [__rX]
  2c43: 6b ed     rlc   [__r0]
  2c45: 51 df     mov   A,[__rZ]
  2c47: 1b f8     sbb   A,[X+0f8h] ; or possibly SROM_Key1
  2c49: 51 e0     mov   A,[__rY]
  2c4b: 1b f7     sbb   A,[X+0f7h]
  2c4d: 51 e1     mov   A,[__rX]
  2c4f: 1b f6     sbb   A,[X+0f6h]
  2c51: 51 ed     mov   A,[__r0]
  2c53: 1b f5     sbb   A,[X+0f5h]
  2c55: c0 11     jc    2c67h
  2c57: 53 ed     mov   [__r0],A
  2c59: 52 f8     mov   A,[X+SROM_Key1]
  2c5b: 14 df     sub   [__rZ],A
  2c5d: 52 f7     mov   A,[X+0f7h]
  2c5f: 1c e0     sbb   [__rY],A
  2c61: 52 f6     mov   A,[X+0f6h]
  2c63: 1c e1     sbb   [__rX],A
  2c65: 77 fc     inc   [X+SROM_Clock]
  2c67: 7b 00     dec   [X+000h] ; or possibly Port_1_Data_SHADE, NO_SHADOW, _NO_SHADOW, _Port_1_Data_SHADE, __data_start, _fillerBuffer1, _globalSystemFlags
  2c69: bf cb     jnz   2c35h
  2c6b: 51 df     mov   A,[__rZ]
  2c6d: 54 f8     mov   [X+SROM_Key1],A
  2c6f: 51 e0     mov   A,[__rY]
  2c71: 54 f7     mov   [X+0f7h],A
  2c73: 51 e1     mov   A,[__rX]
  2c75: 54 f6     mov   [X+0f6h],A
  2c77: 51 ed     mov   A,[__r0]
  2c79: 54 f5     mov   [X+0f5h],A
  2c7b: 18        pop   A
  2c7c: 53 ed     mov   [__r0],A
  2c7e: 18        pop   A
  2c7f: 60 d0     mov   reg[CUR_PP],A
  2c81: 7f        ret

__i_mulu8_block_util:
  2c82: 53 e1     mov   [__rX],A
  2c84: 60 e8     mov   reg[MUL0_X],A
  2c86: 51 e0     mov   A,[__rY]
  2c88: 60 e9     mov   reg[MUL0_Y],A
  2c8a: 5d ea     mov   A,reg[MUL0_DH]
  2c8c: 47 e1 80  tst   [__rX],080h
  2c8f: a0 03     jz    2c93h
  2c91: 02 e0     add   A,[__rY]
  2c93: 47 e0 80  tst   [__rY],080h
  2c96: a0 03     jz    2c9ah
  2c98: 02 e1     add   A,[__rX]
  2c9a: 53 e1     mov   [__rX],A
  2c9c: 5d eb     mov   A,reg[MUL0_DL]
  2c9e: 7f        ret

__mul16:
  2c9f: 10        push  X
  2ca0: 4f        mov   X,SP
  2ca1: 5d d0     mov   A,reg[CUR_PP]
  2ca3: 08        push  A
  2ca4: 62 d0 00  mov   reg[CUR_PP],000h
  2ca7: 52 f9     mov   A,[X+SROM_Key2]
  2ca9: 60 e9     mov   reg[MUL0_Y],A
  2cab: 52 fc     mov   A,[X+SROM_Clock]
  2cad: 60 e8     mov   reg[MUL0_X],A
  2caf: 5d eb     mov   A,reg[MUL0_DL]
  2cb1: 53 e0     mov   [__rY],A
  2cb3: 52 fa     mov   A,[X+SROM_BlockID]
  2cb5: 60 e9     mov   reg[MUL0_Y],A
  2cb7: 5d eb     mov   A,reg[MUL0_DL]
  2cb9: 53 e1     mov   [__rX],A
  2cbb: 5d ea     mov   A,reg[MUL0_DH]
  2cbd: 48 fc 80  tst   [X+0fch],080h ; or possibly SROM_Clock
  2cc0: a0 03     jz    2cc4h
  2cc2: 03 fa     add   A,[X+0fah] ; or possibly SROM_BlockID
  2cc4: 6c fa     rlc   [X+0fah] ; or possibly SROM_BlockID
  2cc6: d0 03     jnc   2ccah
  2cc8: 03 fc     add   A,[X+0fch] ; or possibly SROM_Clock
  2cca: 04 e0     add   [__rY],A
  2ccc: 52 fb     mov   A,[X+SROM_Pointer]
  2cce: 60 e8     mov   reg[MUL0_X],A
  2cd0: 5d eb     mov   A,reg[MUL0_DL]
  2cd2: 04 e0     add   [__rY],A
  2cd4: 18        pop   A
  2cd5: 60 d0     mov   reg[CUR_PP],A
  2cd7: 20        pop   X
  2cd8: 70 3f     and   F,03fh ; Paging mode changed from 3 to 0
  2cda: 71 c0     or    F,0c0h ; Paging mode changed from 0 to 3
  2cdc: 7f        ret

__mul_32X32_32:
  2cdd: 10        push  X
  2cde: 4f        mov   X,SP
  2cdf: 5d d0     mov   A,reg[CUR_PP]
  2ce1: 08        push  A
  2ce2: 62 d0 00  mov   reg[CUR_PP],000h
  2ce5: 52 f5     mov   A,[X+0f5h]
  2ce7: 60 e8     mov   reg[MUL0_X],A
  2ce9: 52 fc     mov   A,[X+SROM_Clock]
  2ceb: 53 e0     mov   [__rY],A
  2ced: 60 e9     mov   reg[MUL0_Y],A
  2cef: 5d eb     mov   A,reg[MUL0_DL]
  2cf1: 54 f5     mov   [X+0f5h],A
  2cf3: 52 f6     mov   A,[X+0f6h]
  2cf5: 7c 2c 82  lcall __i_mulu8_block_util
  2cf8: 54 f6     mov   [X+0f6h],A
  2cfa: 51 e1     mov   A,[__rX]
  2cfc: 05 f5     add   [X+0f5h],A
  2cfe: 52 fb     mov   A,[X+SROM_Pointer]
  2d00: 60 e9     mov   reg[MUL0_Y],A
  2d02: 5d eb     mov   A,reg[MUL0_DL]
  2d04: 05 f5     add   [X+0f5h],A
  2d06: 52 f8     mov   A,[X+SROM_Key1]
  2d08: 4c e0     swap  A,[__rY]
  2d0a: 7c 2c 82  lcall __i_mulu8_block_util
  2d0d: 54 f8     mov   [X+SROM_Key1],A
  2d0f: 5f df e1  mov   [__rZ],[__rX]
  2d12: 52 fb     mov   A,[X+SROM_Pointer]
  2d14: 7c 2c 82  lcall __i_mulu8_block_util
  2d17: 04 df     add   [__rZ],A
  2d19: 51 e1     mov   A,[__rX]
  2d1b: 0d f6     adc   [X+0f6h],A
  2d1d: 0f f5 00  adc   [X+0f5h],000h
  2d20: 52 fa     mov   A,[X+SROM_BlockID]
  2d22: 7c 2c 82  lcall __i_mulu8_block_util
  2d25: 05 f6     add   [X+0f6h],A
  2d27: 51 e1     mov   A,[__rX]
  2d29: 0d f5     adc   [X+0f5h],A
  2d2b: 52 f9     mov   A,[X+SROM_Key2]
  2d2d: 60 e8     mov   reg[MUL0_X],A
  2d2f: 5d eb     mov   A,reg[MUL0_DL]
  2d31: 05 f5     add   [X+0f5h],A
  2d33: 52 f7     mov   A,[X+0f7h]
  2d35: 53 e0     mov   [__rY],A
  2d37: 52 fc     mov   A,[X+SROM_Clock]
  2d39: 7c 2c 82  lcall __i_mulu8_block_util
  2d3c: 02 df     add   A,[__rZ]
  2d3e: 54 f7     mov   [X+0f7h],A
  2d40: 51 e1     mov   A,[__rX]
  2d42: 0d f6     adc   [X+0f6h],A
  2d44: 0f f5 00  adc   [X+0f5h],000h
  2d47: 52 fb     mov   A,[X+SROM_Pointer]
  2d49: 7c 2c 82  lcall __i_mulu8_block_util
  2d4c: 05 f6     add   [X+0f6h],A
  2d4e: 51 e1     mov   A,[__rX]
  2d50: 0d f5     adc   [X+0f5h],A
  2d52: 52 fa     mov   A,[X+SROM_BlockID]
  2d54: 60 e8     mov   reg[MUL0_X],A
  2d56: 5d eb     mov   A,reg[MUL0_DL]
  2d58: 05 f5     add   [X+0f5h],A
  2d5a: 18        pop   A
  2d5b: 60 d0     mov   reg[CUR_PP],A
  2d5d: 20        pop   X
  2d5e: 70 3f     and   F,03fh ; Paging mode changed from 3 to 0
  2d60: 71 c0     or    F,0c0h ; Paging mode changed from 0 to 3
  2d62: 7f        ret

_memcpyLMM:
  2d63: 62 d0 00  mov   reg[CUR_PP],000h
  2d66: 10        push  X
  2d67: 4f        mov   X,SP
  2d68: 52 fb     mov   A,[X+SROM_Pointer]
  2d6a: 60 d5     mov   reg[MVW_PP],A
  2d6c: 52 f9     mov   A,[X+SROM_Key2]
  2d6e: 60 d4     mov   reg[MVR_PP],A
  2d70: 80 03     jmp   2d74h
_memcpy:
  2d72: 10        push  X
  2d73: 4f        mov   X,SP
  2d74: 52 fc     mov   A,[X+SROM_Clock]
  2d76: 53 ec     mov   [__r1],A
  2d78: 53 eb     mov   [__r2],A
  2d7a: 52 fb     mov   A,[X+SROM_Pointer]
  2d7c: 53 ed     mov   [__r0],A
  2d7e: 52 fa     mov   A,[X+SROM_BlockID]
  2d80: 53 ea     mov   [__r3],A
  2d82: 3d f8 00  cmp   [X+0f8h],000h ; or possibly SROM_Key1
  2d85: a0 09     jz    2d8fh
  2d87: 7b f8     dec   [X+0f8h] ; or possibly SROM_Key1
  2d89: 3e ea     mvi   A,[[__r3]++]
  2d8b: 3f eb     mvi   [[__r2]++],A
  2d8d: 8f f4     jmp   2d82h
  2d8f: 20        pop   X
  2d90: 7f        ret

_memsetLMM:
  2d91: 62 d0 00  mov   reg[CUR_PP],000h
  2d94: 10        push  X
  2d95: 4f        mov   X,SP
  2d96: 52 fb     mov   A,[X+SROM_Pointer]
  2d98: 60 d5     mov   reg[MVW_PP],A
  2d9a: 80 03     jmp   2d9eh
_memset:
  2d9c: 10        push  X
  2d9d: 4f        mov   X,SP
  2d9e: 52 fc     mov   A,[X+SROM_Clock]
  2da0: 53 ec     mov   [__r1],A
  2da2: 53 eb     mov   [__r2],A
  2da4: 52 fb     mov   A,[X+SROM_Pointer]
  2da6: 53 ed     mov   [__r0],A
  2da8: 52 fa     mov   A,[X+SROM_BlockID]
  2daa: 80 08     jmp   2db3h
  2dac: 3f eb     mvi   [[__r2]++],A
  2dae: 7b f8     dec   [X+0f8h] ; or possibly SROM_Key1
  2db0: 1f f7 00  sbb   [X+0f7h],000h
  2db3: 3d f8 00  cmp   [X+0f8h],000h ; or possibly SROM_Key1
  2db6: bf f5     jnz   2dach
  2db8: 3d f7 00  cmp   [X+0f7h],000h
  2dbb: bf f0     jnz   2dach
  2dbd: 20        pop   X
  2dbe: 7f        ret

_memcmp:
  2dbf: 10        push  X
  2dc0: 4f        mov   X,SP
  2dc1: 38 04     add   SP,004h
  2dc3: 52 fc     mov   A,[X+SROM_Clock]
  2dc5: 54 01     mov   [X+_Port_2_Data_SHADE],A
  2dc7: 52 fb     mov   A,[X+SROM_Pointer]
  2dc9: 54 00     mov   [X+__data_start],A ; or possibly _fillerBuffer1, _globalSystemFlags
  2dcb: 52 fa     mov   A,[X+SROM_BlockID]
  2dcd: 54 03     mov   [X+Port_5_Data_SHADE],A
  2dcf: 52 f9     mov   A,[X+SROM_Key2]
  2dd1: 54 02     mov   [X+_Port_3_Data_SHADE],A
  2dd3: 80 0b     jmp   2ddfh
  2dd5: 77 01     inc   [X+_Port_2_Data_SHADE]
  2dd7: 0f 00 00  adc   [X+000h],000h ; or possibly Port_1_Data_SHADE, NO_SHADOW, _NO_SHADOW, _Port_1_Data_SHADE, __data_start, _fillerBuffer1, _globalSystemFlags
  2dda: 77 03     inc   [X+Port_5_Data_SHADE]
  2ddc: 0f 02 00  adc   [X+002h],000h ; or possibly Port_3_Data_SHADE, _Port_3_Data_SHADE
  2ddf: 62 d0 00  mov   reg[CUR_PP],000h
  2de2: 52 f8     mov   A,[X+SROM_Key1]
  2de4: 53 ec     mov   [__r1],A
  2de6: 52 f7     mov   A,[X+0f7h]
  2de8: 53 ed     mov   [__r0],A
  2dea: 51 ec     mov   A,[__r1]
  2dec: 11 01     sub   A,001h
  2dee: 54 f8     mov   [X+SROM_Key1],A
  2df0: 51 ed     mov   A,[__r0]
  2df2: 19 00     sbb   A,000h
  2df4: 54 f7     mov   [X+0f7h],A
  2df6: 3c ed 00  cmp   [__r0],000h
  2df9: b0 06     jnz   2e00h
  2dfb: 3c ec 00  cmp   [__r1],000h
  2dfe: a0 1e     jz    2e1dh
  2e00: 62 d0 00  mov   reg[CUR_PP],000h
  2e03: 52 03     mov   A,[X+Port_5_Data_SHADE]
  2e05: 53 ec     mov   [__r1],A
  2e07: 52 02     mov   A,[X+_Port_3_Data_SHADE]
  2e09: 60 d4     mov   reg[MVR_PP],A
  2e0b: 3e ec     mvi   A,[[__r1]++]
  2e0d: 53 ed     mov   [__r0],A
  2e0f: 52 01     mov   A,[X+_Port_2_Data_SHADE]
  2e11: 53 ea     mov   [__r3],A
  2e13: 52 00     mov   A,[X+__data_start] ; or possibly _fillerBuffer1, _globalSystemFlags
  2e15: 60 d4     mov   reg[MVR_PP],A
  2e17: 3e ea     mvi   A,[[__r3]++]
  2e19: 3a ed af  cmp   A,[__r0]
  2e1c: b9 62     jnz   277fh
  2e1e: d0 00     jnc   2e1fh
  2e20: 52 f8     mov   A,[X+SROM_Key1]
  2e22: 01 01     add   A,001h
  2e24: 53 ec     mov   [__r1],A
  2e26: 52 f7     mov   A,[X+0f7h]
  2e28: 09 00     adc   A,000h
  2e2a: 39 00     cmp   A,000h
  2e2c: b0 06     jnz   2e33h
  2e2e: 3c ec 00  cmp   [__r1],000h
  2e31: a0 1e     jz    2e50h
  2e33: 62 d0 00  mov   reg[CUR_PP],000h
  2e36: 52 03     mov   A,[X+Port_5_Data_SHADE]
  2e38: 53 ec     mov   [__r1],A
  2e3a: 52 02     mov   A,[X+_Port_3_Data_SHADE]
  2e3c: 60 d4     mov   reg[MVR_PP],A
  2e3e: 3e ec     mvi   A,[[__r1]++]
  2e40: 53 ed     mov   [__r0],A
  2e42: 52 01     mov   A,[X+_Port_2_Data_SHADE]
  2e44: 53 ea     mov   [__r3],A
  2e46: 52 00     mov   A,[X+__data_start] ; or possibly _fillerBuffer1, _globalSystemFlags
  2e48: 60 d4     mov   reg[MVR_PP],A
  2e4a: 3e ea     mvi   A,[[__r3]++]
  2e4c: 3a ed b0  cmp   A,[__r0]
  2e4f: 0c 62     adc   [062h],A
  2e51: d0 00     jnc   2e52h
  2e53: 55 ec 00  mov   [__r1],000h
  2e56: 55 ed 00  mov   [__r0],000h
  2e59: 80 32     jmp   2e8ch
  2e5b: 62 d0 00  mov   reg[CUR_PP],000h
  2e5e: 52 03     mov   A,[X+Port_5_Data_SHADE]
  2e60: 53 ec     mov   [__r1],A
  2e62: 52 02     mov   A,[X+_Port_3_Data_SHADE]
  2e64: 60 d4     mov   reg[MVR_PP],A
  2e66: 3e ec     mvi   A,[[__r1]++]
  2e68: 53 ed     mov   [__r0],A
  2e6a: 52 01     mov   A,[X+_Port_2_Data_SHADE]
  2e6c: 53 ea     mov   [__r3],A
  2e6e: 52 00     mov   A,[X+__data_start] ; or possibly _fillerBuffer1, _globalSystemFlags
  2e70: 60 d4     mov   reg[MVR_PP],A
  2e72: 3e ea     mvi   A,[[__r3]++]
  2e74: 3a ed d0  cmp   A,[__r0]
  2e77: 0c 62     adc   [062h],A
  2e79: d0 00     jnc   2e7ah
  2e7b: 55 ec ff  mov   [__r1],0ffh
  2e7e: 55 ed ff  mov   [__r0],0ffh
  2e81: 80 0a     jmp   2e8ch
  2e83: 62 d0 00  mov   reg[CUR_PP],000h
  2e86: 55 ec 01  mov   [__r1],001h
  2e89: 55 ed 00  mov   [__r0],000h
  2e8c: 38 fc     add   SP,0fch
  2e8e: 20        pop   X
  2e8f: 7f        ret

_E2PROM_RESERVED:
E2PROM_RESERVED:
  3e80:           db    030h, 030h, 030h, 030h, 030h, 030h, 030h, 030h, 030h, 030h, 030h, 030h, 030h, 030h, 030h, 030h ; EEPROM
  3e90:           db    030h, 030h, 030h, 030h, 030h, 030h, 030h, 030h, 030h, 030h, 030h, 030h, 030h, 030h, 030h, 030h ; EEPROM
  3ea0:           db    030h, 030h, 030h, 030h, 030h, 030h, 030h, 030h, 030h, 030h, 030h, 030h, 030h, 030h, 030h, 030h ; EEPROM
  3eb0:           db    030h, 030h, 030h, 030h, 030h, 030h, 030h, 030h, 030h, 030h, 030h, 030h, 030h, 030h, 030h, 030h ; EEPROM
  3ec0:           db    030h, 030h, 030h, 030h, 030h, 030h, 030h, 030h, 030h, 030h, 030h, 030h, 030h, 030h, 030h, 030h ; EEPROM
  3ed0:           db    030h, 030h, 030h, 030h, 030h, 030h, 030h, 030h, 030h, 030h, 030h, 030h, 030h, 030h, 030h, 030h ; EEPROM
  3ee0:           db    030h, 030h, 030h, 030h, 030h, 030h, 030h, 030h, 030h, 030h, 030h, 030h, 030h, 030h, 030h, 030h ; EEPROM
  3ef0:           db    030h, 030h, 030h, 030h, 030h, 030h, 030h, 030h, 030h, 030h, 030h, 030h, 030h, 030h, 030h, 030h ; EEPROM
  3f00:           db    030h, 030h, 030h, 030h, 030h, 030h, 030h, 030h, 030h, 030h, 030h, 030h, 030h, 030h, 030h, 030h ; EEPROM
  3f10:           db    030h, 030h, 030h, 030h, 030h, 030h, 030h, 030h, 030h, 030h, 030h, 030h, 030h, 030h, 030h, 030h ; EEPROM
  3f20:           db    030h, 030h, 030h, 030h, 030h, 030h, 030h, 030h, 030h, 030h, 030h, 030h, 030h, 030h, 030h, 030h ; EEPROM
  3f30:           db    030h, 030h, 030h, 030h, 030h, 030h, 030h, 030h, 030h, 030h, 030h, 030h, 030h, 030h, 030h, 030h ; EEPROM
  3f40:           db    030h, 030h, 030h, 030h, 030h, 030h, 030h, 030h, 030h, 030h, 030h, 030h, 030h, 030h, 030h, 030h ; EEPROM
  3f50:           db    030h, 030h, 030h, 030h, 030h, 030h, 030h, 030h, 030h, 030h, 030h, 030h, 030h, 030h, 030h, 030h ; EEPROM
  3f60:           db    030h, 030h, 030h, 030h, 030h, 030h, 030h, 030h, 030h, 030h, 030h, 030h, 030h, 030h, 030h, 030h ; EEPROM
  3f70:           db    030h, 030h, 030h, 030h, 030h, 030h, 030h, 030h, 030h, 030h, 030h, 030h, 030h, 030h, 030h, 030h ; EEPROM
  3f80:           db    030h, 030h, 030h, 030h, 030h, 030h, 030h, 030h, 030h, 030h, 030h, 030h, 030h, 030h, 030h, 030h ; EEPROM
  3f90:           db    030h, 030h, 030h, 030h, 030h, 030h, 030h, 030h, 030h, 030h, 030h, 030h, 030h, 030h, 030h, 030h ; EEPROM
  3fa0:           db    030h, 030h, 030h, 030h, 030h, 030h, 030h, 030h, 030h, 030h, 030h, 030h, 030h, 030h, 030h, 030h ; EEPROM
  3fb0:           db    030h, 030h, 030h, 030h, 030h, 030h, 030h, 030h, 030h, 030h, 030h, 030h, 030h, 030h, 030h, 030h ; EEPROM
  3fc0:           db    030h, 030h, 030h, 030h, 030h, 030h, 030h, 030h, 030h, 030h, 030h, 030h, 030h, 030h, 030h, 030h ; EEPROM
  3fd0:           db    030h, 030h, 030h, 030h, 030h, 030h, 030h, 030h, 030h, 030h, 030h, 030h, 030h, 030h, 030h, 030h ; EEPROM
  3fe0:           db    030h, 030h, 030h, 030h, 030h, 030h, 030h, 030h, 030h, 030h, 030h, 030h, 030h, 030h, 030h, 030h ; EEPROM
  3ff0:           db    030h, 030h, 030h, 030h, 030h, 030h, 030h, 030h, 030h, 030h, 030h, 030h, 030h, 030h, 030h, 030h ; EEPROM

